(dp1
S'/home/april/.local/lib/python2.7/site-packages/figleaf-0.6.1-py2.7.egg/figleaf/internals.py'
p2
c__builtin__
set
p3
((lp4
I98
aI99
atRp5
sS'/home/april/anaconda/lib/python2.7/site-packages/numpy/lib/ufunclike.py'
p6
g3
((lp7
I4
aI5
aI7
aI9
aI113
aI51
atRp8
sS'/home/april/anaconda/lib/python2.7/site-packages/scipy/special/basic.py'
p9
g3
((lp10
I5
aI7
aI8
aI9
aI12
aI14
aI15
aI16
aI17
aI18
aI20
aI21
aI22
aI23
aI536
aI25
aI26
aI539
aI28
aI29
aI542
aI31
aI32
aI33
aI34
aI35
aI38
aI39
aI40
aI43
aI56
aI573
aI88
aI601
aI116
aI629
aI131
aI137
aI143
aI24
aI149
aI155
aI27
aI677
aI166
aI177
aI30
aI188
aI705
aI201
aI718
aI213
aI731
aI225
aI236
aI754
aI247
aI383
aI259
aI773
aI271
aI790
aI290
aI879
aI807
aI309
aI829
aI329
aI846
aI911
aI348
aI863
aI367
aI887
aI895
aI903
aI399
aI919
aI927
aI935
aI943
aI415
aI961
aI456
aI459
aI463
aI976
aI467
aI475
aI991
aI483
aI491
aI500
aI1017
atRp11
sS'/home/april/anaconda/lib/python2.7/site-packages/numpy/core/_methods.py'
p12
g3
((lp13
I32
aI4
aI5
aI6
aI8
aI28
aI42
aI12
aI16
aI20
aI21
aI22
aI25
aI24
aI100
aI26
aI60
aI61
atRp14
sS'/home/april/anaconda/lib/python2.7/site-packages/numpy/random/info.py'
p15
g3
((lp16
I128
aI129
aI130
aI131
aI132
aI133
aI84
aI86
aI89
aI90
aI91
aI92
aI93
aI94
aI95
aI96
aI97
aI98
aI99
aI100
aI101
aI102
aI103
aI104
aI105
aI106
aI107
aI108
aI109
aI110
aI111
aI112
aI113
aI114
aI115
aI116
aI117
aI118
aI119
aI120
aI121
aI122
aI123
aI124
aI125
aI126
aI127
atRp17
sS'/home/april/anaconda/lib/python2.7/site-packages/numpy/testing/decorators.py'
p18
g3
((lp19
I86
aI167
aI15
aI16
aI17
aI19
aI85
aI22
aI87
aI88
aI57
aI90
aI220
atRp20
sS'/home/april/anaconda/lib/python2.7/site-packages/numpy/polynomial/polytemplate.py'
p21
g3
((lp22
I11
aI12
aI13
aI15
aI18
aI20
aI919
atRp23
sS'/home/april/anaconda/lib/python2.7/site-packages/numpy/polynomial/polyutils.py'
p24
g3
((lp25
I282
aI33
aI34
aI36
aI37
aI38
aI40
aI41
aI42
aI48
aI49
aI50
aI52
aI53
aI182
aI56
aI62
aI63
aI69
aI70
aI329
aI75
aI85
aI54
aI236
aI115
atRp26
sS'/home/april/anaconda/lib/python2.7/site-packages/scipy/stats/stats.py'
p27
g3
((lp28
I1543
aI1042
aI549
aI4139
aI1584
aI2098
aI3126
aI1093
aI270
aI605
aI606
aI2153
aI4206
aI4209
aI3194
aI2686
aI3203
aI4230
aI1159
aI4234
aI1675
aI2197
aI665
aI166
aI1706
aI4271
aI4272
aI1210
aI3778
aI718
aI2262
aI4313
aI228
aI231
aI1256
aI234
aI4331
aI237
aI1775
aI240
aI241
aI242
aI243
aI244
aI246
aI247
aI760
aI250
aI251
aI252
aI254
aI255
aI256
aI257
aI258
aI259
aI260
aI261
aI262
aI263
aI264
aI265
aI266
aI267
aI268
aI269
aI2318
aI271
aI272
aI276
aI1824
aI801
aI1314
aI808
aI4231
aI2353
aI3892
aI3038
aI310
aI3390
aI2881
aI1356
aI1873
aI4434
aI351
aI4359
aI2405
aI877
aI232
aI4473
aI3975
aI1419
aI909
aI4395
aI413
aI1957
aI2470
aI938
aI433
aI2803
aI4031
aI1473
aI1474
aI1987
aI3318
aI844
aI977
aI3540
aI3541
aI3542
aI3543
aI3544
aI3545
aI3546
aI3550
aI2528
aI4077
aI495
aI3571
aI2036
aI1019
atRp29
sS'/home/april/anaconda/lib/python2.7/site-packages/scipy/sparse/linalg/isolve/lsmr.py'
p30
g3
((lp31
I32
aI17
aI19
aI21
aI23
aI24
aI25
aI26
aI28
aI31
atRp32
sS'/home/april/anaconda/lib/python2.7/site-packages/numpy/lib/stride_tricks.py'
p33
g3
((lp34
I7
aI8
aI10
aI12
aI15
aI16
aI20
aI30
atRp35
sS'/home/april/anaconda/lib/python2.7/site-packages/scipy/special/orthogonal.py'
p36
g3
((lp37
I149
aI385
aI133
aI139
aI653
aI405
aI278
aI663
aI525
aI548
aI679
aI429
aI558
aI303
aI689
aI178
aI572
aI703
aI449
aI96
aI326
aI97
aI713
aI587
aI101
aI79
aI84
aI213
aI87
aI88
aI100
aI475
aI92
aI93
aI95
aI736
aI353
aI98
aI99
aI612
aI485
aI102
aI103
aI104
aI105
aI746
aI363
aI108
aI238
aI113
aI114
aI627
aI89
aI503
aI767
atRp38
sS'/home/april/anaconda/lib/python2.7/threading.py'
p39
g3
((lp40
I107
atRp41
sS'/home/april/anaconda/lib/python2.7/site-packages/scipy/linalg/special_matrices.py'
p42
g3
((lp43
I1
aI3
aI4
aI5
aI6
aI7
aI649
aI10
aI11
aI12
aI143
aI24
aI547
aI433
aI305
aI437
aI76
aI207
aI725
aI478
aI611
aI362
aI109
aI247
atRp44
sS'/home/april/anaconda/lib/python2.7/site-packages/scipy/sparse/sputils.py'
p45
g3
((lp46
I2
aI131
aI4
aI6
aI7
aI9
aI10
aI16
aI17
aI18
aI19
aI21
aI151
aI24
aI156
aI160
aI163
aI164
aI171
aI63
aI196
aI73
aI80
aI210
aI84
aI215
aI146
aI110
aI115
atRp47
sS'/home/april/anaconda/lib/python2.7/site-packages/scipy/sparse/linalg/dsolve/__init__.py'
p48
g3
((lp49
I64
aI52
aI54
aI60
aI62
aI63
atRp50
sS'/home/april/anaconda/lib/python2.7/site-packages/numpy/compat/_inspect.py'
p51
g3
((lp52
I128
aI129
aI130
aI131
aI132
aI150
aI134
aI8
aI10
aI13
aI144
aI152
aI22
aI24
aI155
aI157
aI158
aI159
aI160
aI161
aI162
aI35
aI6
aI169
aI170
aI171
aI172
aI173
aI174
aI175
aI176
aI177
aI178
aI179
aI180
aI53
aI184
aI57
aI186
aI59
aI188
aI181
aI66
aI69
aI70
aI71
aI72
aI73
aI76
aI77
aI207
aI185
aI37
aI187
aI109
aI110
aI111
aI112
aI113
aI114
aI115
aI116
aI118
aI127
atRp53
sS'/home/april/anaconda/lib/python2.7/site-packages/scipy/optimize/linesearch.py'
p54
g3
((lp55
I534
aI13
aI14
aI16
aI17
aI18
aI275
aI276
aI277
aI22
aI29
aI30
aI31
aI32
aI431
aI180
aI187
aI188
aI450
aI586
aI397
aI595
aI101
aI102
aI103
aI20
aI21
atRp56
sS'/home/april/anaconda/lib/python2.7/copy_reg.py'
p57
g3
((lp58
I15
aI18
aI20
aI24
aI25
aI28
atRp59
sS'/home/april/anaconda/lib/python2.7/inspect.py'
p60
g3
((lp61
I1025
aI518
aI1036
aI1047
aI1048
aI25
aI1052
aI29
aI30
aI32
aI33
aI34
aI35
aI36
aI37
aI38
aI39
aI40
aI41
aI42
aI45
aI46
aI48
aI51
aI350
aI59
aI67
aI585
aI76
aI78
aI98
aI108
aI110
aI630
aI632
aI633
aI634
aI125
aI127
aI641
aI142
aI755
aI153
aI155
aI673
aI164
aI682
aI181
aI695
aI191
aI705
aI715
aI209
aI225
aI227
aI741
aI743
aI236
aI750
aI753
aI754
aI243
aI756
aI759
aI760
aI261
aI263
aI792
aI793
aI794
aI795
aI796
aI797
aI798
aI799
aI801
aI803
aI812
aI813
aI814
aI816
aI817
aI819
aI821
aI831
aI837
aI839
aI842
aI844
aI845
aI846
aI847
aI848
aI849
aI340
aI856
aI857
aI858
aI859
aI860
aI861
aI862
aI863
aI864
aI866
aI355
aI868
aI871
aI872
aI873
aI874
aI875
aI369
aI894
aI398
aI422
aI424
aI435
aI440
aI332
aI247
aI460
aI469
aI470
aI472
aI985
aI987
aI1056
aI1020
atRp62
sS'/home/april/anaconda/lib/python2.7/site-packages/numpy/oldnumeric/array_printer.py'
p63
g3
((lp64
I8
aI2
aI4
aI6
aI7
atRp65
sS'/home/april/anaconda/lib/python2.7/site-packages/PIL/ImageColor.py'
p66
g3
((lp67
I20
aI21
aI23
aI24
aI29
aI39
aI99
aI112
aI116
aI117
aI118
aI119
aI120
aI121
aI122
aI123
aI124
aI125
aI126
aI127
aI128
aI129
aI130
aI131
aI132
aI133
aI134
aI135
aI136
aI137
aI138
aI139
aI140
aI141
aI142
aI143
aI144
aI145
aI146
aI147
aI148
aI149
aI150
aI151
aI152
aI153
aI154
aI155
aI156
aI157
aI158
aI159
aI160
aI161
aI162
aI163
aI164
aI165
aI166
aI167
aI168
aI169
aI170
aI171
aI172
aI173
aI174
aI175
aI176
aI177
aI178
aI179
aI180
aI181
aI182
aI183
aI184
aI185
aI186
aI187
aI188
aI189
aI190
aI191
aI192
aI193
aI194
aI195
aI196
aI197
aI198
aI199
aI200
aI201
aI202
aI203
aI204
aI205
aI206
aI207
aI208
aI209
aI210
aI211
aI212
aI213
aI214
aI215
aI216
aI217
aI218
aI219
aI220
aI221
aI222
aI223
aI224
aI225
aI226
aI227
aI228
aI229
aI230
aI231
aI232
aI233
aI234
aI235
aI236
aI237
aI238
aI239
aI240
aI241
aI242
aI243
aI244
aI245
aI246
aI247
aI248
aI249
aI250
aI251
aI252
aI253
aI254
aI255
aI256
aI257
aI258
aI259
aI260
aI261
aI262
atRp68
sS'/home/april/anaconda/lib/python2.7/site-packages/scipy/sparse/linalg/matfuncs.py'
p69
g3
((lp70
I384
aI129
aI3
aI134
aI139
aI13
aI142
aI15
aI144
aI17
aI18
aI19
aI533
aI22
aI23
aI25
aI26
aI27
aI29
aI542
aI415
aI33
aI162
aI36
aI167
aI553
aI172
aI177
aI30
aI566
aI439
aI184
aI31
aI64
aI267
aI581
aI73
aI11
aI83
aI93
aI352
aI227
aI488
aI107
aI109
aI119
aI124
aI21
atRp71
sS'/home/april/anaconda/lib/python2.7/site-packages/scipy/sparse/linalg/isolve/lsqr.py'
p72
g3
((lp73
I96
aI97
aI50
aI52
aI54
aI56
aI57
aI58
aI61
atRp74
sS'/home/april/anaconda/lib/python2.7/site-packages/scipy/stats/_tukeylambda_stats.py'
p75
g3
((lp76
I1
aI34
aI35
aI4
aI5
aI33
aI41
aI42
aI139
aI140
aI45
aI141
aI145
aI146
aI3
aI149
aI36
aI138
aI37
atRp77
sS'/home/april/anaconda/lib/python2.7/site-packages/numpy/lib/twodim_base.py'
p78
g3
((lp79
I64
aI290
aI3
aI453
aI6
aI7
aI169
aI426
aI615
aI685
aI14
aI10
aI518
aI117
aI758
aI348
aI390
aI786
aI220
aI861
aI5
atRp80
sS'/home/april/anaconda/lib/python2.7/site-packages/numpy/lib/__init__.py'
p81
g3
((lp82
I1
aI2
aI4
aI5
aI6
aI7
aI8
aI9
aI10
aI12
aI13
aI15
aI16
aI17
aI18
aI19
aI20
aI21
aI23
aI24
aI25
aI26
aI27
aI28
aI29
aI30
aI31
aI32
aI33
aI34
aI35
aI36
aI38
aI39
aI40
atRp83
sS'/home/april/anaconda/lib/python2.7/site-packages/scipy/integrate/odepack.py'
p84
g3
((lp85
I2
aI4
aI6
aI7
aI9
aI10
aI11
aI12
aI13
aI14
aI15
aI16
aI20
aI21
aI22
aI23
atRp86
sS'/home/april/anaconda/lib/python2.7/site-packages/numpy/polynomial/__init__.py'
p87
g3
((lp88
I15
aI16
aI18
aI19
aI20
aI21
aI22
aI23
aI25
aI26
aI27
atRp89
sS'/home/april/anaconda/lib/python2.7/site-packages/numpy/core/function_base.py'
p90
g3
((lp91
I3
aI1
aI91
aI4
aI6
atRp92
sS'/home/april/anaconda/lib/python2.7/site-packages/scipy/sparse/dia.py'
p93
g3
((lp94
I1
aI3
aI5
aI7
aI9
aI11
aI12
aI13
aI14
aI143
aI17
aI151
aI165
aI167
aI181
aI184
aI190
aI194
aI198
aI74
aI76
aI220
aI230
atRp95
sS'/home/april/anaconda/lib/python2.7/site-packages/scipy/optimize/lbfgsb.py'
p96
g3
((lp97
I36
aI197
aI198
aI199
aI200
aI41
aI43
aI46
aI47
aI48
aI49
aI50
aI51
aI9
aI341
aI40
aI39
aI38
atRp98
sS'/home/april/anaconda/lib/python2.7/site-packages/scipy/sparse/csgraph/_components.py'
p99
g3
((lp100
I1
aI3
aI5
aI7
aI8
aI10
aI11
aI14
atRp101
sS'/home/april/anaconda/lib/python2.7/site-packages/scipy/linalg/decomp_lu.py'
p102
g3
((lp103
I1
aI3
aI5
aI7
aI10
aI11
aI12
aI14
aI17
aI75
aI126
atRp104
sS'/home/april/anaconda/lib/python2.7/site-packages/scipy/sparse/sparsetools/coo.py'
p105
g3
((lp106
I9
aI10
aI11
aI12
aI13
aI14
aI15
aI16
aI20
aI21
aI22
aI24
aI25
aI26
aI27
aI30
aI31
aI32
aI176
aI35
aI48
aI51
aI57
aI62
aI63
aI64
aI71
aI141
aI211
aI106
atRp107
sS'/home/april/anaconda/lib/python2.7/site-packages/scipy/linalg/basic.py'
p108
g3
((lp109
I7
aI392
aI9
aI10
aI12
aI14
aI15
aI16
aI17
aI18
aI22
aI23
aI555
aI686
aI687
aI178
aI179
aI314
aI454
aI455
aI615
aI104
aI105
aI244
aI245
atRp110
sS'/home/april/anaconda/lib/python2.7/site-packages/scipy/linalg/flinalg.py'
p111
g3
((lp112
I5
aI7
aI12
aI13
aI22
aI25
aI28
atRp113
sS'/home/april/anaconda/lib/python2.7/site-packages/scipy/linalg/_expm_frechet.py'
p114
g3
((lp115
I1
aI2
aI163
aI4
aI5
aI7
aI10
aI204
aI174
aI115
aI155
aI188
aI223
atRp116
sS'/home/april/anaconda/lib/python2.7/site-packages/scipy/optimize/_trustregion_ncg.py'
p117
g3
((lp118
I1
aI34
aI35
aI4
aI33
aI6
aI7
aI8
aI10
aI2
aI13
atRp119
sS'/home/april/anaconda/lib/python2.7/__future__.py'
p120
g3
((lp121
I128
aI48
aI51
aI52
aI53
aI54
aI55
aI56
aI57
aI60
aI66
aI67
aI68
aI69
aI70
aI71
aI72
aI74
aI75
aI76
aI77
aI78
aI80
aI88
aI97
aI102
aI103
aI104
aI106
aI107
aI108
aI110
aI111
aI112
aI114
aI115
aI116
aI118
aI119
aI120
aI122
aI123
aI124
aI126
aI127
atRp122
sS'/home/april/anaconda/lib/python2.7/site-packages/numpy/oldnumeric/typeconv.py'
p123
g3
((lp124
I1
aI3
aI5
aI6
aI10
aI11
aI18
aI22
aI23
aI24
aI25
aI26
aI27
aI33
aI45
aI46
aI47
aI48
aI49
aI51
aI52
aI60
atRp125
sS'/home/april/anaconda/lib/python2.7/site-packages/numpy/matrixlib/__init__.py'
p126
g3
((lp127
I1
aI2
aI4
aI6
aI7
aI8
atRp128
sS'/home/april/anaconda/lib/python2.7/site-packages/numpy/fft/fftpack.py'
p129
g3
((lp130
I518
aI528
aI409
aI794
aI32
aI33
aI34
aI36
aI38
aI167
aI40
aI41
aI43
aI44
aI1085
aI964
aI325
aI713
aI460
aI81
aI996
aI620
aI877
aI499
aI248
atRp131
sS'/home/april/anaconda/lib/python2.7/ctypes/__init__.py'
p132
g3
((lp133
I512
aI4
aI517
aI6
aI8
aI10
aI11
aI12
aI13
aI14
aI15
aI17
aI19
aI22
aI516
aI26
aI540
aI543
aI544
aI545
aI546
aI35
aI548
aI549
aI550
aI551
aI552
aI553
aI555
aI52
aI70
aI524
aI77
aI78
aI94
aI95
aI97
aI99
aI101
aI102
aI103
aI104
aI105
aI106
aI107
aI108
aI109
aI111
aI140
aI141
aI143
aI144
aI145
aI147
aI150
aI151
aI153
aI154
aI155
aI159
aI160
aI161
aI166
aI168
aI169
aI170
aI172
aI173
aI174
aI176
aI177
aI178
aI180
aI181
aI182
aI184
aI186
aI187
aI25
aI198
aI199
aI201
aI202
aI203
aI205
aI206
aI207
aI210
aI547
aI215
aI216
aI217
aI219
aI220
aI224
aI226
aI227
aI228
aI231
aI233
aI234
aI235
aI236
aI238
aI239
aI240
aI241
aI243
aI244
aI245
aI251
aI253
aI255
aI256
aI257
aI258
aI260
aI261
aI263
aI265
aI266
aI267
aI268
aI271
aI273
aI274
aI279
aI281
aI282
aI286
aI289
aI197
aI291
aI292
aI294
aI295
aI297
aI316
aI326
aI332
aI345
aI346
aI347
aI349
aI350
aI351
aI352
aI353
aI354
aI356
aI359
aI360
aI361
aI362
aI364
aI365
aI369
aI375
aI382
aI388
aI392
aI393
aI395
aI428
aI429
aI430
aI432
aI439
aI442
aI445
aI446
aI448
aI450
aI453
aI456
aI473
aI474
aI475
aI485
aI488
aI491
aI493
aI494
aI495
aI496
aI497
aI498
aI500
aI501
aI504
aI505
aI511
atRp134
sS'/home/april/anaconda/lib/python2.7/site-packages/scipy/special/lambertw.py'
p135
g3
((lp136
I1
aI3
aI6
atRp137
sS'/home/april/anaconda/lib/python2.7/site-packages/scipy/sparse/compressed.py'
p138
g3
((lp139
I1
aI2
aI259
aI4
aI6
aI8
aI9
aI651
aI12
aI13
aI14
aI15
aI530
aI323
aI788
aI22
aI539
aI796
aI287
aI416
aI807
aI555
aI172
aI429
aI861
aI820
aI701
aI11
aI836
aI582
aI839
aI841
aI204
aI852
aI86
aI88
aI601
aI90
aI493
aI762
aI480
aI101
aI231
aI361
aI402
aI765
aI881
aI626
aI19
aI759
aI20
aI506
aI380
aI893
aI383
atRp140
sS'/home/april/anaconda/lib/python2.7/site-packages/numpy/core/machar.py'
p141
g3
((lp142
I4
aI8
aI10
aI11
aI15
aI94
aI95
aI96
aI97
aI98
aI108
aI109
aI110
aI112
aI114
aI115
aI116
aI117
aI118
aI119
aI123
aI124
aI125
aI126
aI127
aI128
aI129
aI132
aI133
aI134
aI135
aI136
aI137
aI138
aI141
aI142
aI145
aI146
aI147
aI148
aI149
aI150
aI151
aI152
aI153
aI157
aI158
aI159
aI160
aI161
aI162
aI163
aI164
aI167
aI168
aI169
aI171
aI172
aI173
aI174
aI177
aI178
aI179
aI180
aI181
aI182
aI183
aI184
aI185
aI186
aI187
aI188
aI190
aI195
aI196
aI199
aI200
aI202
aI203
aI204
aI205
aI206
aI207
aI210
aI213
aI214
aI215
aI219
aI220
aI221
aI222
aI223
aI224
aI225
aI226
aI227
aI228
aI229
aI231
aI232
aI233
aI234
aI235
aI238
aI239
aI240
aI250
aI251
aI252
aI253
aI254
aI255
aI256
aI257
aI258
aI259
aI260
aI261
aI266
aI269
aI270
aI271
aI272
aI273
aI274
aI275
aI276
aI277
aI279
aI281
aI283
aI284
aI286
aI287
aI288
aI289
aI290
aI294
aI295
aI296
aI297
aI298
aI299
aI300
aI301
aI302
aI303
aI304
aI305
aI306
aI307
aI308
aI309
aI310
aI312
aI314
aI315
aI316
aI318
aI319
aI320
aI321
aI322
aI323
aI325
aI338
atRp143
sS'/home/april/anaconda/lib/python2.7/site-packages/scipy/stats/mstats.py'
p144
g3
((lp145
I81
aI82
aI78
aI79
atRp146
sS'/home/april/anaconda/lib/python2.7/site-packages/numpy/polynomial/hermite_e.py'
p147
g3
((lp148
I515
aI1540
aI193
aI580
aI1298
aI1173
aI196
aI1055
aI71
aI303
aI944
aI449
aI1587
aI1715
aI187
aI60
aI190
aI63
aI64
aI65
aI66
aI68
aI69
aI70
aI199
aI72
aI73
aI74
aI76
aI79
aI849
aI1746
aI1363
aI724
aI1114
aI351
aI400
aI59
aI1000
aI236
aI1646
aI1235
aI62
aI634
aI125
atRp149
sS'/home/april/anaconda/lib/python2.7/site-packages/scipy/sparse/linalg/isolve/__init__.py'
p150
g3
((lp151
I1
aI3
aI6
aI7
aI8
aI9
aI10
aI12
aI13
aI14
aI15
atRp152
sS'/home/april/anaconda/lib/python2.7/site-packages/numpy/version.py'
p153
g3
((lp154
I3
aI4
aI5
aI6
aI7
aI9
atRp155
sS'/home/april/anaconda/lib/python2.7/site-packages/scipy/sparse/csgraph/__init__.py'
p156
g3
((lp157
I128
aI129
aI130
aI131
aI132
aI133
aI134
aI135
aI136
aI137
aI138
aI139
aI140
aI141
aI142
aI143
aI144
aI146
aI147
aI148
aI150
aI152
aI153
aI157
aI158
aI159
aI166
aI167
aI119
aI121
aI123
aI125
aI126
aI127
atRp158
sS'/home/april/anaconda/lib/python2.7/site-packages/numpy/core/shape_base.py'
p159
g3
((lp160
I1
aI3
aI4
aI6
aI46
aI45
aI110
aI47
aI48
aI177
aI51
aI52
aI53
aI54
aI228
aI58
atRp161
sS'<string>'
p162
g3
((lp163
I512
aI1
aI2
aI387
aI132
aI261
aI6
aI193
aI8
aI265
aI10
aI779
aI12
aI13
aI399
aI201
aI152
aI659
aI276
aI24
aI196
aI410
aI28
aI7
aI5
aI162
aI35
aI294
aI807
aI808
aI41
aI43
aI45
aI47
aI176
aI433
aI693
aI694
aI183
aI312
aI57
aI351
aI188
aI778
aI63
aI832
aI833
aI67
aI580
aI460
aI330
aI695
aI204
aI551
aI207
aI337
aI39
aI344
aI92
aI862
aI863
aI3
aI225
aI65
aI483
aI358
aI617
aI362
aI423
aI61
aI112
aI59
aI243
aI643
aI373
aI169
aI20
aI380
aI403
aI4
atRp164
sS'/home/april/anaconda/lib/python2.7/site-packages/scipy/optimize/anneal.py'
p165
g3
((lp166
I128
aI4
aI6
aI7
aI9
aI10
aI12
aI14
aI15
aI144
aI18
aI19
aI150
aI151
aI31
aI163
aI164
aI134
aI166
aI42
aI135
aI457
aI458
aI459
aI460
aI461
aI598
aI88
aI91
aI165
aI96
aI97
aI105
aI76
aI114
aI120
aI121
atRp167
sS'/home/april/anaconda/lib/python2.7/site-packages/scipy/sparse/linalg/eigen/arpack/arpack.py'
p168
g3
((lp169
I750
aI7
aI526
aI1049
aI1050
aI1051
aI1573
aI1574
aI39
aI41
aI43
aI45
aI46
aI48
aI49
aI50
aI51
aI53
aI566
aI55
aI56
aI59
aI60
aI62
aI63
aI64
aI67
aI69
aI256
aI72
aI73
aI74
aI75
aI1281
aI589
aI590
aI591
aI592
aI81
aI82
aI83
aI84
aI85
aI86
aI92
aI94
aI95
aI97
aI99
aI100
aI101
aI103
aI105
aI108
aI109
aI110
aI111
aI113
aI114
aI115
aI116
aI118
aI119
aI120
aI121
aI122
aI123
aI129
aI131
aI132
aI133
aI141
aI142
aI143
aI144
aI145
aI146
aI147
aI149
aI151
aI152
aI153
aI154
aI155
aI157
aI164
aI710
aI173
aI175
aI181
aI182
aI190
aI191
aI192
aI193
aI194
aI195
aI196
aI198
aI200
aI201
aI202
aI203
aI204
aI206
aI213
aI214
aI216
aI222
aI223
aI224
aI225
aI226
aI227
aI228
aI229
aI230
aI232
aI233
aI234
aI235
aI236
aI237
aI238
aI239
aI246
aI247
aI249
aI1279
aI1280
aI257
aI258
aI259
aI260
aI261
aI262
aI263
aI264
aI265
aI266
aI267
aI270
aI273
aI276
aI279
aI280
aI285
aI296
aI297
aI303
aI304
aI305
aI54
aI358
aI883
aI372
aI373
aI374
aI375
aI891
aI896
aI897
aI902
aI912
aI917
aI918
aI922
aI926
aI931
aI932
aI947
aI956
aI961
aI962
aI77
aI78
aI986
aI79
aI989
aI165
aI992
aI80
aI1001
aI1012
atRp170
sS'/home/april/anaconda/lib/python2.7/hashlib.py'
p171
g3
((lp172
I96
aI129
aI130
aI99
aI113
aI101
aI135
aI145
aI63
aI106
aI139
aI66
aI61
aI59
aI146
aI128
aI55
aI95
aI138
aI94
aI127
atRp173
sS'/home/april/anaconda/lib/python2.7/site-packages/numpy/__init__.py'
p174
g3
((lp175
I128
aI129
aI131
aI133
aI137
aI138
aI140
aI142
aI143
aI144
aI146
aI147
aI148
aI149
aI150
aI151
aI152
aI153
aI154
aI155
aI156
aI157
aI158
aI162
aI164
aI166
aI167
aI168
aI169
aI170
aI171
aI174
aI175
aI176
aI106
aI110
aI111
aI112
aI113
aI116
aI121
aI122
atRp176
sS'/home/april/anaconda/lib/python2.7/site-packages/numpy/testing/numpytest.py'
p177
g3
((lp178
I1
aI2
aI3
aI5
aI7
aI8
aI10
aI11
aI14
aI28
atRp179
sS'/home/april/anaconda/lib/python2.7/UserDict.py'
p180
g3
((lp181
I59
aI60
aI71
atRp182
sS'/home/april/anaconda/lib/python2.7/site-packages/scipy/sparse/csgraph/_laplacian.py'
p183
g3
((lp184
I3
aI10
aI12
aI18
aI13
aI82
aI118
atRp185
sS'/home/april/anaconda/lib/python2.7/site-packages/scipy/sparse/linalg/_onenormest.py'
p186
g3
((lp187
I161
aI2
aI131
aI4
aI6
aI166
aI7
aI8
aI9
aI170
aI12
aI110
aI15
aI272
aI115
aI152
aI121
aI156
aI138
atRp188
sS'/home/april/anaconda/lib/python2.7/site-packages/numpy/ctypeslib.py'
p189
g3
((lp190
I133
aI134
aI136
aI397
aI142
aI143
aI144
aI195
aI89
aI153
aI155
aI413
aI312
aI161
aI297
aI298
aI172
aI304
aI306
aI51
aI52
aI53
aI310
aI55
aI56
aI57
aI314
aI59
aI60
aI317
aI64
aI194
aI331
aI327
aI330
aI311
aI332
aI336
aI337
aI338
aI83
aI84
aI85
aI86
aI343
aI345
aI315
aI375
atRp191
sS'/home/april/anaconda/lib/python2.7/site-packages/scipy/optimize/__init__.py'
p192
g3
((lp193
I160
aI161
aI162
aI163
aI142
aI144
aI146
aI147
aI148
aI149
aI150
aI151
aI152
aI153
aI154
aI155
aI156
aI157
aI158
atRp194
sS'/home/april/anaconda/lib/python2.7/sre_compile.py'
p195
g3
((lp196
I516
aI517
aI518
aI519
aI521
aI522
aI523
aI524
aI26
aI35
aI36
aI37
aI38
aI39
aI40
aI41
aI42
aI43
aI44
aI45
aI47
aI48
aI49
aI50
aI51
aI52
aI53
aI55
aI56
aI57
aI58
aI59
aI60
aI61
aI64
aI65
aI66
aI75
aI76
aI77
aI80
aI81
aI82
aI83
aI84
aI85
aI87
aI88
aI89
aI90
aI91
aI92
aI93
aI94
aI97
aI98
aI99
aI100
aI102
aI103
aI104
aI105
aI106
aI108
aI109
aI110
aI111
aI112
aI118
aI119
aI120
aI121
aI127
aI128
aI129
aI131
aI133
aI135
aI136
aI137
aI138
aI139
aI140
aI141
aI143
aI144
aI145
aI146
aI147
aI148
aI149
aI150
aI157
aI158
aI159
aI162
aI181
aI182
aI183
aI184
aI185
aI186
aI187
aI188
aI189
aI190
aI191
aI192
aI193
aI194
aI195
aI197
aI198
aI200
aI203
aI206
aI210
aI211
aI212
aI213
aI214
aI215
aI216
aI217
aI218
aI219
aI220
aI221
aI222
aI224
aI229
aI230
aI231
aI232
aI233
aI234
aI235
aI236
aI237
aI238
aI239
aI240
aI241
aI243
aI245
aI246
aI247
aI249
aI250
aI251
aI254
aI255
aI256
aI257
aI260
aI261
aI262
aI265
aI266
aI267
aI268
aI269
aI270
aI271
aI272
aI273
aI274
aI357
aI358
aI360
aI366
aI367
aI368
aI370
aI371
aI372
aI373
aI374
aI375
aI377
aI378
aI379
aI380
aI381
aI382
aI383
aI384
aI387
aI389
aI391
aI392
aI393
aI410
aI423
aI424
aI430
aI431
aI432
aI434
aI435
aI436
aI437
aI439
aI440
aI441
aI443
aI444
aI448
aI449
aI453
aI454
aI455
aI456
aI458
aI459
aI460
aI461
aI463
aI464
aI465
aI466
aI476
aI477
aI478
aI483
aI484
aI487
aI490
aI492
aI494
aI499
aI500
aI501
aI505
aI510
atRp197
sS'/home/april/anaconda/lib/python2.7/site-packages/scipy/sparse/csgraph/_validation.py'
p198
g3
((lp199
I1
aI3
aI4
aI5
aI8
aI11
aI12
aI13
aI14
aI15
atRp200
sS'/home/april/anaconda/lib/python2.7/site-packages/numpy/linalg/linalg.py'
p201
g3
((lp202
I704
aI899
aI1670
aI162
aI1196
aI10
aI1419
aI12
aI13
aI14
aI15
aI17
aI404
aI22
aI23
aI24
aI25
aI540
aI157
aI30
aI31
aI32
aI34
aI37
aI167
aI1868
aI28
aI811
aI1708
aI1070
aI175
aI1332
aI1588
aI151
aI63
aI64
aI66
aI139
aI71
aI908
aI74
aI75
aI76
aI77
aI335
aI80
aI81
aI82
aI84
aI450
aI87
aI90
aI79
aI94
aI95
aI96
aI97
aI99
aI1508
aI29
aI244
aI125
aI127
atRp203
sS'/home/april/anaconda/lib/python2.7/site-packages/scipy/sparse/linalg/eigen/arpack/__init__.py'
p204
g3
((lp205
I19
aI20
aI22
atRp206
sS'/home/april/anaconda/lib/python2.7/site-packages/numpy/lib/utils.py'
p207
g3
((lp208
I1
aI2
aI3
aI4
aI1029
aI6
aI7
aI1032
aI9
aI10
aI11
aI12
aI1026
aI14
aI43
aI1035
aI1096
aI85
aI93
aI94
aI95
aI97
aI107
aI108
aI109
aI110
aI111
aI113
aI118
aI119
aI120
aI122
aI123
aI124
aI125
aI128
aI129
aI131
aI644
aI134
aI135
aI137
aI142
aI143
aI144
aI145
aI147
aI148
aI149
aI150
aI151
aI152
aI154
aI155
aI157
aI694
aI697
aI699
aI700
aI202
aI203
aI204
aI208
aI210
aI213
aI215
aI217
aI224
aI274
aI132
aI309
aI826
aI414
aI433
aI434
aI438
aI964
aI457
aI988
aI1001
aI1003
aI1004
aI1009
aI1013
aI1017
aI1020
aI1023
atRp209
sS'/home/april/anaconda/lib/python2.7/posixpath.py'
p210
g3
((lp211
I129
aI130
aI131
aI132
aI133
aI347
aI74
aI61
aI75
aI324
aI325
aI326
aI327
aI73
aI330
aI331
aI77
aI78
aI333
aI80
aI81
aI338
aI339
aI340
aI334
aI342
aI343
aI344
aI345
aI346
aI335
aI352
aI353
aI356
aI357
aI358
aI337
aI105
aI336
aI114
aI341
atRp212
sS'/home/april/anaconda/lib/python2.7/site-packages/numpy/polynomial/legendre.py'
p213
g3
((lp214
I896
aI1154
aI1668
aI264
aI1040
aI984
aI150
aI666
aI88
aI1568
aI547
aI433
aI1331
aI94
aI1396
aI95
aI1213
aI1095
aI1737
aI330
aI1612
aI83
aI84
aI86
aI87
aI216
aI89
aI90
aI219
aI92
aI93
aI222
aI479
aI96
aI97
aI99
aI228
aI102
aI615
aI1768
aI225
aI1268
aI380
aI765
atRp215
sS'/home/april/anaconda/lib/python2.7/site-packages/scipy/__init__.py'
p216
g3
((lp217
I65
aI66
aI68
aI70
aI71
aI73
aI76
aI77
aI78
aI79
aI80
aI81
aI84
aI85
aI91
aI93
aI95
aI98
aI99
aI103
aI104
aI105
aI106
aI109
aI114
aI115
aI121
aI123
aI124
aI125
atRp218
sS'/home/april/anaconda/lib/python2.7/site-packages/scipy/linalg/__init__.py'
p219
g3
((lp220
I151
aI153
aI155
aI157
aI158
aI159
aI160
aI161
aI162
aI163
aI164
aI165
aI166
aI167
aI168
aI169
aI170
aI171
aI173
aI175
aI176
aI177
aI178
aI179
aI183
aI184
aI188
aI190
aI191
aI192
atRp221
sS'/home/april/anaconda/lib/python2.7/site-packages/numpy/core/__init__.py'
p222
g3
((lp223
I2
aI3
aI5
aI6
aI7
aI8
aI9
aI10
aI11
aI12
aI13
aI14
aI15
aI16
aI17
aI18
aI19
aI20
aI21
aI22
aI23
aI24
aI25
aI26
aI27
aI28
aI30
aI32
aI34
aI35
aI36
aI37
aI38
aI39
aI40
aI41
aI42
aI45
aI46
aI47
aI53
aI57
aI63
aI64
aI65
aI69
aI71
aI72
aI73
atRp224
sS'/home/april/anaconda/lib/python2.7/site-packages/scipy/optimize/zeros.py'
p225
g3
((lp226
I1
aI3
aI5
aI6
aI8
aI9
aI10
aI12
aI14
aI15
aI16
aI17
aI20
aI21
aI32
aI419
aI164
aI421
aI166
aI45
aI46
aI307
aI308
aI309
aI420
aI165
aI229
aI230
aI231
atRp227
sS'/home/april/anaconda/lib/python2.7/site-packages/numpy/lib/index_tricks.py'
p228
g3
((lp229
I1
aI484
aI643
aI644
aI5
aI6
aI769
aI8
aI600
aI10
aI11
aI652
aI653
aI14
aI143
aI141
aI17
aI18
aI19
aI20
aI661
aI23
aI4
aI837
aI547
aI82
aI646
aI487
aI7
aI556
aI430
aI431
aI432
aI434
aI436
aI566
aI202
aI330
aI454
aI2
aI452
aI453
aI326
aI583
aI456
aI12
aI458
aI205
aI206
aI207
aI208
aI337
aI210
aI142
aI642
aI216
aI217
aI15
aI199
aI3
aI144
aI483
aI228
aI229
aI230
aI231
aI232
aI233
aI234
aI235
aI237
aI535
aI501
aI505
aI533
aI21
atRp230
sS'/home/april/anaconda/lib/python2.7/site-packages/numpy/linalg/__init__.py'
p231
g3
((lp232
I44
aI46
aI48
aI50
aI51
aI52
atRp233
sS'/home/april/anaconda/lib/python2.7/site-packages/scipy/special/spfun_stats.py'
p234
g3
((lp235
I34
aI36
aI38
aI39
aI42
aI45
atRp236
sS'/home/april/anaconda/lib/python2.7/site-packages/scipy/lib/__init__.py'
p237
g3
((lp238
I16
aI10
aI11
aI13
aI15
atRp239
sS'/home/april/anaconda/lib/python2.7/site-packages/scipy/sparse/linalg/isolve/iterative.py'
p240
g3
((lp241
I1
aI3
aI5
aI7
aI8
aI10
aI11
aI12
aI14
aI22
aI279
aI280
aI281
aI156
aI157
aI159
aI160
aI278
aI219
aI94
aI66
aI69
aI70
aI71
aI72
aI73
aI74
aI75
aI78
aI337
aI338
aI90
aI91
aI221
aI222
aI95
aI499
aI500
aI218
atRp242
sS'/home/april/anaconda/lib/python2.7/site-packages/scipy/misc/__init__.py'
p243
g3
((lp244
I64
aI65
aI66
aI68
aI69
aI38
aI40
aI42
aI44
aI45
aI46
aI48
aI51
aI53
aI54
aI56
aI57
aI58
aI59
aI60
atRp245
sS'/home/april/anaconda/lib/python2.7/site-packages/PIL/__init__.py'
p246
g3
((lp247
I1
atRp248
sS'/home/april/anaconda/lib/python2.7/site-packages/PIL/ImageMode.py'
p249
g3
((lp250
I24
aI17
aI36
aI22
aI30
atRp251
sS'/home/april/anaconda/lib/python2.7/site-packages/scipy/misc/common.py'
p252
g3
((lp253
I4
aI6
aI8
aI201
aI10
aI463
aI14
aI15
aI336
aI300
aI21
aI246
aI503
aI409
aI143
aI93
aI542
atRp254
sS'/home/april/anaconda/lib/python2.7/rfc822.py'
p255
g3
((lp256
I320
aI386
aI771
aI772
aI74
aI390
aI209
aI779
aI770
aI270
aI461
aI472
aI403
aI661
aI535
aI794
aI785
aI285
aI801
aI547
aI293
aI935
aI424
aI809
aI78
aI679
aI943
aI816
aI435
aI820
aI496
aI439
aI952
aI526
aI443
aI829
aI830
aI831
aI832
aI833
aI450
aI747
aI197
aI454
aI71
aI841
aI842
aI843
aI844
aI845
aI846
aI333
aI720
aI977
aI82
aI724
aI85
aI86
aI88
aI250
aI228
aI219
aI506
aI80
aI482
aI355
aI77
aI487
aI716
aI295
aI728
aI850
aI367
aI76
aI116
aI446
aI605
aI782
aI122
aI508
aI637
aI382
atRp257
sS'/home/april/anaconda/lib/python2.7/unittest/loader.py'
p258
g3
((lp259
I1
aI3
aI4
aI5
aI6
aI7
aI9
aI10
aI12
aI14
aI143
aI294
aI19
aI22
aI27
aI30
aI38
aI297
aI42
aI43
aI44
aI45
aI46
aI48
aI305
aI308
aI309
aI312
aI313
aI59
aI77
aI207
aI219
aI131
aI229
aI233
aI237
aI124
atRp260
sS'/home/april/anaconda/lib/python2.7/site-packages/numpy/lib/arrayterator.py'
p261
g3
((lp262
I99
aI133
aI102
aI9
aI171
aI13
aI142
aI15
aI11
aI17
aI18
aI21
aI182
aI89
aI91
atRp263
sS'/home/april/anaconda/lib/python2.7/StringIO.py'
p264
g3
((lp265
I258
aI139
aI278
aI30
aI31
aI32
aI36
aI38
aI168
aI42
aI53
aI54
aI187
aI65
aI323
aI68
aI208
aI81
aI88
aI95
aI241
aI114
aI119
aI253
atRp266
sS'/home/april/anaconda/lib/python2.7/site-packages/PIL/ImageFilter.py'
p267
g3
((lp268
I130
aI259
aI260
aI261
aI193
aI264
aI140
aI141
aI270
aI271
aI272
aI18
aI19
aI148
aI277
aI150
aI24
aI283
aI284
aI285
aI159
aI288
aI161
aI167
aI168
aI156
aI170
aI44
aI242
aI174
aI157
aI180
aI181
aI182
aI57
aI58
aI187
aI64
aI65
aI52
aI195
aI198
aI194
aI76
aI204
aI98
aI206
aI205
aI80
aI209
aI215
aI216
aI217
aI90
aI91
aI220
aI250
aI226
aI227
aI228
aI231
aI106
aI107
aI237
aI238
aI239
aI114
aI248
aI249
aI122
aI123
aI253
atRp269
sS'/home/april/anaconda/lib/python2.7/site-packages/numpy/core/_internal.py'
p270
g3
((lp271
I4
aI5
aI6
aI8
aI522
aI11
aI15
aI555
aI49
aI10
aI82
aI127
aI134
aI135
aI139
aI140
aI144
aI146
aI191
aI192
aI193
aI194
aI196
aI197
aI198
aI199
aI206
aI207
aI208
aI212
aI213
aI216
aI219
aI220
aI233
aI236
aI241
aI246
aI249
aI254
aI259
aI262
aI263
aI264
aI265
aI271
aI287
aI561
aI306
aI307
aI308
aI309
aI310
aI311
aI312
aI313
aI314
aI315
aI316
aI317
aI318
aI319
aI320
aI321
aI322
aI323
aI324
aI325
aI326
aI327
aI328
aI330
aI332
aI333
aI334
aI335
aI336
aI337
aI338
aI339
aI340
aI341
aI342
aI343
aI344
aI345
aI346
aI347
aI348
aI349
aI350
aI351
aI352
aI354
aI356
atRp272
sS'/home/april/anaconda/lib/python2.7/site-packages/scipy/sparse/linalg/eigen/lobpcg/__init__.py'
p273
g3
((lp274
I104
aI106
aI107
aI101
aI102
atRp275
sS'/home/april/anaconda/lib/python2.7/unittest/main.py'
p276
g3
((lp277
I1
aI3
aI4
aI5
aI7
aI8
aI10
aI12
aI13
aI14
aI153
aI160
aI43
aI59
aI63
aI66
aI67
aI70
aI72
aI73
aI74
aI75
aI216
aI97
aI236
aI111
atRp278
sS'/home/april/anaconda/lib/python2.7/site-packages/numpy/lib/arraypad.py'
p279
g3
((lp280
I481
aI291
aI100
aI6
aI359
aI264
aI43
aI237
aI15
aI8
aI449
aI211
aI139
aI406
aI185
aI4
aI317
aI510
atRp281
sS'/home/april/anaconda/lib/python2.7/site-packages/scipy/linalg/decomp_qr.py'
p282
g3
((lp283
I1
aI2
aI4
aI7
aI8
aI12
aI362
aI300
aI301
aI15
aI178
aI179
aI9
aI30
aI31
atRp284
sS'/home/april/anaconda/lib/python2.7/site-packages/scipy/linalg/blas.py'
p285
g3
((lp286
I129
aI131
aI132
aI133
aI138
aI139
aI140
aI143
aI144
aI145
aI148
aI151
aI152
aI153
aI154
aI155
aI158
aI202
aI119
aI248
aI125
aI127
atRp287
sS'/home/april/anaconda/lib/python2.7/site-packages/scipy/sparse/lil.py'
p288
g3
((lp289
I2
aI131
aI4
aI6
aI8
aI393
aI10
aI12
aI13
aI15
aI16
aI19
aI20
aI23
aI280
aI153
aI155
aI159
aI163
aI170
aI308
aI182
aI184
aI180
aI191
aI322
aI199
aI332
aI207
aI339
aI85
aI356
aI348
aI228
aI359
aI387
aI365
aI83
aI247
atRp290
sS'/home/april/anaconda/lib/python2.7/unittest/case.py'
p291
g3
((lp292
I1025
aI1027
aI4
aI5
aI6
aI7
aI8
aI9
aI1034
aI12
aI13
aI1038
aI527
aI1042
aI3
aI1045
aI22
aI1048
aI25
aI517
aI32
aI1057
aI34
aI1
aI39
aI1064
aI41
aI1068
aI45
aI48
aI49
aI51
aI565
aI54
aI10
aI70
aI610
aI78
aI87
aI601
aI602
aI603
aI604
aI605
aI609
aI98
aI99
aI101
aI615
aI617
aI106
aI619
aI620
aI109
aI622
aI623
aI625
aI19
aI618
aI133
aI621
aI164
aI166
aI168
aI170
aI174
aI178
aI180
aI31
aI288
aI210
aI728
aI1060
aI734
aI225
aI233
aI746
aI237
aI241
aI245
aI249
aI252
aI255
aI266
aI269
aI275
aI278
aI281
aI284
aI800
aI1072
aI807
aI297
aI814
aI821
aI827
aI839
aI865
aI378
aI905
aI394
aI397
aI406
aI410
aI414
aI928
aI420
aI934
aI426
aI940
aI946
aI952
aI958
aI757
aI448
aI964
aI971
aI978
aI477
aI995
aI1004
aI503
aI1018
aI510
atRp293
sS'/home/april/anaconda/lib/python2.7/base64.py'
p294
g3
((lp295
I129
aI130
aI131
aI132
aI135
aI8
aI9
aI10
aI15
aI17
aI18
aI3
aI20
aI25
aI282
aI283
aI28
aI29
aI32
aI42
aI300
aI285
aI177
aI310
aI59
aI319
aI326
aI79
aI86
aI95
aI352
aI251
aI103
aI259
aI359
aI117
aI118
aI119
aI120
aI121
aI122
aI123
aI124
aI125
aI126
atRp296
sS'/home/april/anaconda/lib/python2.7/site-packages/numpy/polynomial/polynomial.py'
p297
g3
((lp298
I781
aI1390
aI1430
aI292
aI423
aI1194
aI1067
aI685
aI563
aI54
aI55
aI952
aI57
aI58
aI59
aI60
aI61
aI63
aI64
aI65
aI66
aI67
aI69
aI838
aI328
aI202
aI77
aI80
aI83
aI1492
aI86
aI474
aI93
aI1127
aI366
aI1011
aI246
aI893
aI127
atRp299
sS'/home/april/anaconda/lib/python2.7/_weakrefset.py'
p300
g3
((lp301
I37
aI38
aI45
aI47
aI48
aI49
atRp302
sS'/home/april/anaconda/lib/python2.7/site-packages/numpy/oldnumeric/precision.py'
p303
g3
((lp304
I6
aI7
aI8
aI10
aI11
aI13
aI15
aI16
aI17
aI18
aI19
aI21
aI22
aI23
aI24
aI26
aI28
aI29
aI31
aI32
aI33
aI34
aI35
aI36
aI37
aI39
aI41
aI42
aI43
aI44
aI47
aI48
aI49
aI50
aI53
aI54
aI55
aI56
aI59
aI60
aI63
aI64
aI65
aI66
aI69
aI70
aI71
aI73
aI74
aI75
aI78
aI79
aI80
aI83
aI84
aI85
aI88
aI89
aI90
aI93
aI94
aI96
aI97
aI98
aI99
aI101
aI102
aI103
aI105
aI106
aI107
aI110
aI111
aI112
aI115
aI116
aI117
aI120
aI121
aI122
aI125
aI126
aI127
aI130
aI131
aI133
aI134
aI135
aI137
aI138
aI139
aI142
aI143
aI144
aI147
aI148
aI149
aI152
aI153
aI154
aI157
aI158
aI159
aI162
aI163
aI165
aI166
aI167
aI169
atRp305
sS'/home/april/anaconda/lib/python2.7/site-packages/scipy/sparse/linalg/dsolve/linsolve.py'
p306
g3
((lp307
I3
aI1
aI163
aI164
aI6
aI16
aI9
aI11
aI12
aI13
aI14
aI15
aI304
aI49
aI18
aI237
aI20
aI238
aI23
aI26
aI5
atRp308
sS'/home/april/anaconda/lib/python2.7/site-packages/numpy/lib/info.py'
p309
g3
((lp310
I147
aI149
aI150
atRp311
sS'/home/april/anaconda/lib/python2.7/site-packages/scipy/sparse/bsr.py'
p312
g3
((lp313
I1
aI2
aI22
aI7
aI9
aI11
aI268
aI13
aI14
aI15
aI16
aI17
aI18
aI278
aI265
aI5
aI544
aI393
aI292
aI423
aI389
aI298
aI263
aI305
aI308
aI261
aI311
aI564
aI446
aI323
aI199
aI396
aI336
aI467
aI270
aI470
aI483
aI295
aI117
aI118
aI504
aI381
atRp314
sS'/home/april/anaconda/lib/python2.7/site-packages/numpy/lib/_iotools.py'
p315
g3
((lp316
I1
aI2
aI515
aI4
aI5
aI6
aI7
aI9
aI523
aI526
aI528
aI17
aI530
aI531
aI20
aI24
aI25
aI26
aI27
aI30
aI34
aI35
aI38
aI41
aI570
aI571
aI573
aI575
aI576
aI578
aI11
aI580
aI587
aI588
aI589
aI606
aI607
aI608
aI609
aI610
aI611
aI101
aI614
aI615
aI619
aI18
aI622
aI625
aI633
aI636
aI638
aI127
aI640
aI641
aI642
aI643
aI645
aI646
aI647
aI648
aI649
aI651
aI621
aI145
aI661
aI664
aI159
aI161
aI181
aI182
aI184
aI186
aI187
aI188
aI709
aI199
aI200
aI203
aI205
aI206
aI207
aI208
aI209
aI75
aI211
aI213
aI223
aI736
aI737
aI231
aI236
aI128
aI129
aI130
aI789
aI286
aI288
aI289
aI291
aI292
aI294
aI295
aI296
aI297
aI299
aI300
aI303
aI304
aI306
aI307
aI826
aI315
aI317
aI838
aI840
aI854
aI863
aI827
aI387
aI392
aI428
aI432
aI433
aI435
aI439
aI440
aI442
aI451
aI452
aI456
aI501
aI503
aI504
aI505
aI506
aI507
aI508
aI510
atRp317
sS'/home/april/anaconda/lib/python2.7/site-packages/scipy/sparse/data.py'
p318
g3
((lp319
I7
aI9
aI11
aI13
aI15
aI16
aI21
aI22
aI25
aI28
aI30
aI32
aI35
aI38
aI41
aI44
aI51
aI59
aI62
aI65
aI72
aI77
aI78
aI79
aI80
aI82
aI83
aI88
aI89
aI90
aI92
aI94
aI97
aI101
aI103
aI121
atRp320
sS'/home/april/anaconda/lib/python2.7/site-packages/PIL/Image.py'
p321
g3
((lp322
I1542
aI522
aI290
aI205
aI27
aI29
aI30
aI2082
aI1059
aI36
aI2054
aI39
aI45
aI2094
aI559
aI49
aI1118
aI54
aI55
aI56
aI1599
aI577
aI2114
aI69
aI70
aI72
aI2121
aI75
aI77
aI78
aI1208
aI83
aI1620
aI92
aI606
aI98
aI105
aI108
aI113
aI628
aI958
aI118
aI121
aI122
aI123
aI124
aI125
aI1150
aI128
aI129
aI130
aI131
aI132
aI135
aI136
aI137
aI138
aI139
aI142
aI143
aI144
aI145
aI146
aI1683
aI1685
aI150
aI664
aI665
aI154
aI155
aI160
aI161
aI162
aI163
aI164
aI1702
aI169
aI174
aI175
aI176
aI177
aI178
aI179
aI180
aI181
aI182
aI183
aI1720
aI884
aI1722
aI1724
aI191
aI192
aI708
aI200
aI201
aI1228
aI34
aI207
aI208
aI209
aI210
aI211
aI212
aI213
aI1750
aI215
aI216
aI219
aI228
aI229
aI233
aI1260
aI244
aI760
aI1786
aI255
aI1284
aI214
aI269
aI783
aI387
aI788
aI279
aI1924
aI285
aI802
aI1833
aI1325
aI1732
aI1673
aI826
aI839
aI328
aI1872
aI2104
aI853
aI740
aI1904
aI1394
aI371
aI1908
aI1909
aI1910
aI1911
aI1912
aI1913
aI1914
aI1915
aI1916
aI1917
aI1918
aI1919
aI149
aI1923
aI900
aI1943
aI1718
aI916
aI153
aI408
aI409
aI410
aI411
aI413
aI929
aI946
aI1459
aI444
aI446
aI447
aI449
aI407
aI1480
aI460
aI2125
aI2003
aI1494
aI984
aI477
aI479
aI484
aI2021
aI1512
aI496
aI1010
aI503
aI2040
atRp323
sS'/home/april/anaconda/lib/python2.7/ctypes/_endian.py'
p324
g3
((lp325
I4
aI5
aI7
aI9
aI44
aI45
aI47
aI49
aI50
aI51
aI52
aI26
aI27
atRp326
sS'/home/april/anaconda/lib/python2.7/site-packages/scipy/optimize/tnc.py'
p327
g3
((lp328
I268
aI269
aI270
aI271
aI272
aI405
aI33
aI35
aI37
aI38
aI39
aI41
aI44
aI45
aI46
aI47
aI48
aI49
aI51
aI52
aI53
aI54
aI55
aI56
aI57
aI60
aI61
aI62
aI63
aI64
aI65
aI66
aI67
aI68
aI70
aI71
aI72
aI73
aI74
aI75
aI76
aI77
aI78
aI79
aI86
aI87
aI88
aI89
aI90
atRp329
sS'/home/april/anaconda/lib/python2.7/mimetools.py'
p330
g3
((lp331
I1
aI4
aI5
aI6
aI7
aI8
aI9
aI11
aI13
aI14
aI15
aI17
aI18
aI20
aI22
aI24
aI239
aI157
aI33
aI220
aI176
aI50
aI87
aI68
aI71
aI204
aI207
aI79
aI208
aI209
aI210
aI211
aI212
aI206
aI215
aI216
aI217
aI218
aI219
aI92
aI221
aI95
aI224
aI98
aI229
aI107
aI108
aI111
aI112
aI114
aI115
aI245
aI123
aI125
atRp332
sS'/home/april/anaconda/lib/python2.7/difflib.py'
p333
g3
((lp334
I925
aI1695
aI1643
aI662
aI1158
aI1159
aI1672
aI2058
aI37
aI1688
aI1043
aI1813
aI1686
aI1943
aI1944
aI1689
aI154
aI1691
aI1692
aI1690
aI1694
aI261
aI32
aI33
aI930
aI35
aI1316
aI1670
aI39
aI41
aI46
aI1711
aI1712
aI1841
aI306
aI691
aI1758
aI1242
aI31
aI703
aI1056
aI152
aI1862
aI1735
aI1352
aI1353
aI586
aI460
aI1230
aI1106
aI1108
aI36
aI858
aI1243
aI860
aI1885
aI350
aI223
aI945
aI1634
aI1124
aI2022
aI1896
aI235
aI29
aI751
aI531
aI884
aI1653
aI2054
aI1147
aI636
aI2020
aI766
atRp335
sS'/home/april/anaconda/lib/python2.7/bisect.py'
p336
g3
((lp337
I1
aI3
aI45
aI47
aI67
aI22
aI24
aI89
aI90
atRp338
sS'/home/april/anaconda/lib/python2.7/site-packages/scipy/linalg/decomp_cholesky.py'
p339
g3
((lp340
I1
aI3
aI5
aI8
aI9
aI11
aI12
aI238
aI15
aI16
aI136
aI85
aI182
aI37
atRp341
sS'/home/april/anaconda/lib/python2.7/site-packages/scipy/linalg/_matfuncs_sqrtm.py'
p342
g3
((lp343
I22
aI6
aI7
aI9
aI11
aI15
aI16
aI17
aI18
aI21
aI118
aI25
aI29
atRp344
sS'/home/april/anaconda/lib/python2.7/site-packages/numpy/add_newdocs.py'
p345
g3
((lp346
I4100
aI4103
aI9
aI6155
aI6156
aI6158
aI6159
aI6161
aI19
aI6489
aI6153
aI4153
aI4156
aI64
aI6210
aI6212
aI4168
aI4171
aI79
aI4183
aI4186
aI2139
aI2141
aI94
aI98
aI4198
aI4201
aI2160
aI113
aI2162
aI117
aI4216
aI123
aI2176
aI2178
aI4228
aI4231
aI139
aI148
aI6300
aI6302
aI4263
aI892
aI4266
aI2231
aI2421
aI2248
aI4299
aI4302
aI75
aI6521
aI6364
aI6372
aI4335
aI4338
aI4350
aI4353
aI6413
aI6415
aI6531
aI729
aI6875
aI7034
aI6877
aI4404
aI4407
aI6461
aI2367
aI4419
aI4422
aI6471
aI2377
aI2378
aI6475
aI2381
aI2382
aI2385
aI2386
aI2389
aI2390
aI6487
aI2393
aI2397
aI2400
aI6501
aI6503
aI6504
aI60
aI6506
aI6507
aI6509
aI6510
aI6512
aI6513
aI2418
aI6515
aI6516
aI373
aI6518
aI6519
aI377
aI6522
aI6524
aI6525
aI6527
aI6528
aI6530
aI2795
aI6533
aI6534
aI6536
aI6537
aI394
aI4492
aI6541
aI402
aI404
aI4501
aI6553
aI6555
aI412
aI414
aI6567
aI6569
aI427
aI429
aI436
aI6581
aI438
aI6583
aI4538
aI4540
aI445
aI447
aI6595
aI6597
aI5879
aI463
aI6609
aI6611
aI2521
aI2524
aI2525
aI6623
aI2528
aI6625
aI4578
aI4580
aI6637
aI6639
aI502
aI506
aI6651
aI6653
aI4616
aI2569
aI4618
aI6667
aI524
aI6679
aI2585
aI2588
aI544
aI546
aI6693
aI6695
aI558
aI560
aI6707
aI6709
aI572
aI574
aI6721
aI6723
aI4680
aI586
aI588
aI5218
aI6735
aI6737
aI2647
aI600
aI2650
aI6749
aI6751
aI6763
aI6765
aI631
aI6777
aI6779
aI639
aI2689
aI4739
aI2692
aI6791
aI6793
aI4748
aI2709
aI6807
aI2712
aI453
aI6819
aI6821
aI7281
aI2728
aI6833
aI6835
aI2744
aI3188
aI2747
aI6847
aI6849
aI5921
aI6861
aI6863
aI120
aI4818
aI4820
aI2774
aI2777
aI731
aI7290
aI7288
aI2792
aI6889
aI6891
aI768
aI770
aI6922
aI6924
aI6936
aI6938
aI4891
aI4893
aI6950
aI6952
aI2857
aI3846
aI6964
aI6966
aI824
aI827
aI2877
aI6978
aI6980
aI2887
aI841
aI2894
aI6992
aI2897
aI6994
aI2900
aI4950
aI2903
aI2906
aI2909
aI7006
aI7008
aI2922
aI7020
aI2925
aI7022
aI2930
aI2933
aI2938
aI7036
aI2941
aI894
aI4991
aI4993
aI7048
aI5001
aI7050
aI5003
aI2956
aI2959
aI7062
aI7064
aI922
aI2971
aI2974
aI928
aI930
aI5028
aI5030
aI2986
aI839
aI2989
aI7090
aI7092
aI3001
aI3004
aI7104
aI7106
aI5281
aI3016
aI3019
aI7118
aI7120
aI5074
aI980
aI982
aI3031
aI3034
aI7132
aI2554
aI7134
aI7146
aI7148
aI2557
aI1014
aI1016
aI4948
aI7162
aI5115
aI3243
aI7174
aI7176
aI5131
aI3085
aI3088
aI7188
aI7190
aI7202
aI7204
aI7216
aI7218
aI3125
aI6665
aI3128
aI522
aI7230
aI7232
aI1089
aI1091
aI3140
aI5190
aI3143
aI2572
aI7244
aI7246
aI5199
aI3155
aI3158
aI7258
aI7260
aI5216
aI3170
aI3173
aI1127
aI7272
aI1129
aI5309
aI3185
aI7282
aI7284
aI5240
aI5242
aI7295
aI3200
aI7297
aI3203
aI7301
aI7303
aI5258
aI7307
aI5260
aI7309
aI7313
aI7315
aI7317
aI7319
aI7324
aI7326
aI7327
aI7329
aI7330
aI5283
aI7332
aI7333
aI7335
aI7336
aI7338
aI7339
aI3246
aI1201
aI1203
aI3258
aI5307
aI3261
aI3273
aI3276
aI3288
aI3291
aI3962
aI5344
aI6452
aI5353
aI3317
aI3320
aI1275
aI1277
aI1278
aI1280
aI1281
aI3331
aI3334
aI3345
aI3348
aI3370
aI3373
aI5436
aI5438
aI1344
aI1349
aI1351
aI1356
aI1359
aI1365
aI1367
aI3446
aI3449
aI1409
aI1411
aI5510
aI5512
aI920
aI3504
aI3507
aI4682
aI1480
aI1483
aI7076
aI3550
aI3553
aI7078
aI5611
aI5613
aI3581
aI3584
aI3596
aI3599
aI1283
aI1557
aI1559
aI3611
aI602
aI3614
aI5673
aI3626
aI3629
aI5688
aI4213
aI3668
aI3671
aI3683
aI3686
aI3698
aI3701
aI396
aI1660
aI3713
aI3716
aI5770
aI3728
aI5778
aI5784
aI5786
aI1706
aI1708
aI3764
aI3766
aI5827
aI5829
aI5830
aI5832
aI5839
aI5841
aI2854
aI1754
aI1756
aI1658
aI5072
aI3811
aI3814
aI5867
aI5869
aI3828
aI3831
aI5881
aI3843
aI5892
aI5894
aI3858
aI3861
aI1823
aI1825
aI5923
aI5928
aI5930
aI5936
aI1841
aI5938
aI1843
aI5945
aI5947
aI5951
aI5953
aI5959
aI5961
aI5995
aI1875
aI1877
aI5975
aI5977
aI5983
aI5985
aI5990
aI5992
aI5993
aI3947
aI3730
aI3950
aI1342
aI6007
aI6009
aI6010
aI3965
aI6805
aI6018
aI3977
aI3980
aI1949
aI1951
aI4028
aI4031
aI6082
aI6681
aI3404
aI6091
aI7160
aI3407
aI2725
atRp347
sS'/home/april/anaconda/lib/python2.7/site-packages/scipy/sparse/linalg/eigen/lobpcg/lobpcg.py'
p348
g3
((lp349
I130
aI11
aI13
aI15
aI16
aI17
aI19
aI21
aI23
aI543
aI162
aI163
aI164
aI165
aI31
aI139
aI70
aI74
aI82
aI95
aI96
aI100
atRp350
sS'/home/april/anaconda/lib/python2.7/site-packages/scipy/linalg/_decomp_qz.py'
p351
g3
((lp352
I1
aI3
aI5
aI6
aI8
aI9
aI11
aI13
aI15
aI18
aI54
aI55
atRp353
sS'/home/april/anaconda/lib/python2.7/site-packages/scipy/optimize/nnls.py'
p354
g3
((lp355
I9
aI3
aI4
aI6
aI1
atRp356
sS'/home/april/anaconda/lib/python2.7/site-packages/scipy/sparse/sparsetools/csc.py'
p357
g3
((lp358
I519
aI9
aI10
aI11
aI12
aI269
aI14
aI15
aI16
aI148
aI21
aI22
aI24
aI25
aI26
aI27
aI669
aI30
aI31
aI32
aI35
aI369
aI48
aI51
aI57
aI62
aI63
aI64
aI198
aI71
aI78
aI13
aI419
aI469
aI569
aI233
aI619
aI113
aI20
aI319
atRp359
sS'/home/april/anaconda/lib/python2.7/site-packages/numpy/testing/__init__.py'
p360
g3
((lp361
I6
aI8
aI10
aI11
aI12
aI13
aI14
aI15
atRp362
sS'/home/april/anaconda/lib/python2.7/string.py'
p363
g3
((lp364
I160
aI161
aI162
aI132
aI165
aI172
aI318
aI151
aI152
aI158
aI149
atRp365
sS'/home/april/anaconda/lib/python2.7/pprint.py'
p366
g3
((lp367
I128
aI132
aI35
aI37
aI38
aI40
aI41
aI45
aI46
aI49
aI50
aI51
aI52
aI55
aI61
aI65
aI69
aI73
aI77
aI334
aI339
aI84
aI85
aI352
aI231
aI240
aI116
aI120
aI250
aI125
atRp368
sS'/home/april/anaconda/lib/python2.7/site-packages/scipy/sparse/linalg/_expm_multiply.py'
p369
g3
((lp370
I258
aI363
aI4
aI6
aI263
aI8
aI9
aI10
aI23
aI268
aI2
aI15
aI274
aI663
aI218
aI413
aI31
aI39
aI169
aI327
aI226
aI48
aI625
aI316
aI215
aI395
aI197
aI326
aI199
aI200
aI201
aI202
aI203
aI204
aI205
aI206
aI207
aI208
aI210
aI211
aI212
aI213
aI214
aI471
aI216
aI217
aI346
aI219
aI221
aI222
aI223
aI224
aI225
aI354
aI227
aI228
aI229
aI230
aI233
aI234
aI235
aI236
aI237
aI12
aI241
aI370
aI243
aI116
aI634
aI507
aI508
aI253
atRp371
sS'/home/april/anaconda/lib/python2.7/site-packages/numpy/linalg/info.py'
p372
g3
((lp373
I34
aI36
atRp374
sS'/home/april/anaconda/lib/python2.7/site-packages/scipy/sparse/__init__.py'
p375
g3
((lp376
I224
aI197
aI199
aI205
aI206
aI207
aI208
aI209
aI210
aI211
aI212
aI213
aI214
aI217
aI221
aI222
aI223
atRp377
sS'/home/april/anaconda/lib/python2.7/abc.py'
p378
g3
((lp379
I97
aI99
aI100
aI101
aI102
aI103
aI87
aI89
aI90
aI91
aI92
aI93
atRp380
sS'/home/april/anaconda/lib/python2.7/site-packages/numpy/oldnumeric/misc.py'
p381
g3
((lp382
I36
aI5
aI6
aI7
aI8
aI9
aI10
aI11
aI12
aI14
aI15
aI16
aI17
aI18
aI19
aI21
aI22
aI4
aI28
atRp383
sS'/home/april/anaconda/lib/python2.7/unittest/result.py'
p384
g3
((lp385
I1
aI130
aI3
aI4
aI5
aI134
aI7
aI9
aI10
aI139
aI12
aI14
aI15
aI144
aI20
aI22
aI23
aI152
aI26
aI36
aI37
aI38
aI39
aI40
aI180
aI183
aI56
aI59
aI190
aI65
aI73
aI79
aI84
aI105
aI111
aI119
aI148
aI126
atRp386
sS'/home/april/anaconda/lib/python2.7/site-packages/scipy/sparse/sparsetools/__init__.py'
p387
g3
((lp388
I2
aI3
aI5
aI6
aI7
aI8
aI9
aI10
atRp389
sS'/home/april/anaconda/lib/python2.7/site-packages/numpy/matrixlib/defmatrix.py'
p390
g3
((lp391
I1
aI514
aI3
aI4
aI389
aI6
aI378
aI9
aI989
aI279
aI365
aI784
aI985
aI195
aI917
aI22
aI23
aI24
aI644
aI27
aI412
aI29
aI30
aI5
aI32
aI34
aI548
aI37
aI679
aI31
aI28
aI301
aI349
aI817
aI949
aI55
aI87
aI1083
aI446
aI352
aI11
aI581
aI327
aI714
aI335
aI338
aI342
aI983
aI984
aI345
aI986
aI987
aI604
aI861
aI480
aI231
aI232
aI233
aI362
aI749
aI25
aI1014
aI890
atRp392
sS'/home/april/anaconda/lib/python2.7/site-packages/scipy/integrate/_ode.py'
p393
g3
((lp394
I1024
aI1025
aI1026
aI1027
aI1028
aI1029
aI518
aI513
aI1033
aI1034
aI1035
aI1036
aI1037
aI1038
aI1039
aI1040
aI1041
aI1042
aI1043
aI1044
aI543
aI1115
aI550
aI39
aI40
aI1065
aI555
aI556
aI564
aI566
aI567
aI568
aI569
aI570
aI571
aI572
aI574
aI581
aI585
aI591
aI84
aI85
aI86
aI599
aI88
aI89
aI91
aI604
aI93
aI94
aI95
aI612
aI614
aI103
aI616
aI617
aI618
aI619
aI620
aI1133
aI622
aI625
aI626
aI627
aI1140
aI630
aI631
aI632
aI633
aI634
aI1147
aI1148
aI637
aI638
aI662
aI973
aI376
aI730
aI975
aI635
aI636
aI747
aI754
aI762
aI763
aI766
aI767
aI769
aI770
aI771
aI772
aI774
aI326
aI327
aI335
aI339
aI859
aI351
aI876
aI877
aI880
aI882
aI883
aI884
aI886
aI887
aI888
aI889
aI890
aI891
aI895
aI896
aI897
aI898
aI899
aI900
aI901
aI902
aI903
aI904
aI395
aI403
aI919
aI408
aI413
aI927
aI944
aI434
aI953
aI961
aI962
aI965
aI967
aI968
aI971
aI972
aI461
aI974
aI463
aI976
aI977
aI978
aI979
aI980
aI471
aI477
aI995
aI484
aI488
aI1012
aI1013
aI503
aI1016
aI1018
aI1019
aI1021
aI1022
aI1023
atRp395
sS'/home/april/.local/lib/python2.7/site-packages/figleaf-0.6.1-py2.7.egg/figleaf/__init__.py'
p396
g3
((lp397
I234
aI235
atRp398
sS'/home/april/anaconda/lib/python2.7/site-packages/scipy/integrate/__init__.py'
p399
g3
((lp400
I48
aI49
aI51
aI52
aI53
aI54
aI56
aI57
aI58
atRp401
sS'/home/april/anaconda/lib/python2.7/site-packages/numpy/testing/nosetester.py'
p402
g3
((lp403
I129
aI131
aI132
aI133
aI134
aI135
aI8
aI9
aI10
aI267
aI12
aI141
aI142
aI144
aI145
aI152
aI156
aI158
aI161
aI163
aI6
aI7
aI52
aI138
aI137
aI266
aI192
aI139
aI268
aI75
aI210
aI85
aI220
aI221
aI140
aI382
atRp404
sS'/home/april/anaconda/lib/python2.7/site-packages/scipy/integrate/quadrature.py'
p405
g3
((lp406
I1
aI3
aI4
aI6
aI7
aI8
aI265
aI10
aI11
aI12
aI14
aI17
aI18
aI531
aI21
aI540
aI70
aI295
aI557
aI558
aI182
aI700
aI701
aI702
aI703
aI704
aI705
aI706
aI707
aI708
aI709
aI710
aI711
aI712
aI713
aI714
aI715
aI716
aI717
aI718
aI719
aI720
aI721
aI722
aI723
aI724
aI725
aI726
aI727
aI728
aI729
aI730
aI731
aI735
aI401
aI188
aI117
aI118
aI505
atRp407
sS'/home/april/anaconda/lib/python2.7/random.py'
p408
g3
((lp409
I40
aI42
aI43
aI556
aI45
aI46
aI47
aI48
aI49
aI51
aI52
aI53
aI54
aI55
aI56
aI58
aI59
aI60
aI61
aI62
aI63
aI70
aI97
aI72
aI87
aI89
aI91
aI609
aI98
aI100
aI109
aI110
aI111
aI627
aI116
aI117
aI119
aI123
aI636
aI649
aI651
aI653
aI145
aI162
aI165
aI168
aI684
aI173
aI174
aI715
aI719
aI729
aI380
aI237
aI751
aI243
aI244
aI774
aI44
aI272
aI276
aI799
aI290
aI805
aI807
aI811
aI821
aI824
aI826
aI829
aI833
aI855
aI355
aI361
aI879
aI880
aI881
aI882
aI883
aI884
aI885
aI886
aI887
aI888
aI889
aI890
aI891
aI892
aI893
aI894
aI895
aI896
aI897
aI898
aI899
aI900
aI901
aI903
aI405
aI417
aI436
aI484
atRp410
sS'/home/april/anaconda/lib/python2.7/pickle.py'
p411
g3
((lp412
I1025
aI1027
aI1036
aI1043
aI532
aI1369
aI25
aI27
aI29
aI30
aI31
aI32
aI33
aI34
aI35
aI37
aI38
aI41
aI42
aI43
aI44
aI45
aI46
aI1071
aI1073
aI51
aI606
aI1078
aI1080
aI1144
aI58
aI59
aI60
aI1085
aI62
aI1087
aI66
aI67
aI1092
aI69
aI1094
aI583
aI1097
aI1099
aI588
aI77
aI1102
aI591
aI1104
aI82
aI1107
aI1109
aI87
aI88
aI89
aI602
aI93
aI94
aI608
aI1122
aI955
aI102
aI103
aI104
aI1129
aI106
aI107
aI108
aI109
aI110
aI957
aI112
aI1137
aI114
aI115
aI116
aI117
aI118
aI105
aI120
aI121
aI122
aI123
aI124
aI125
aI126
aI127
aI128
aI129
aI1154
aI131
aI132
aI1157
aI134
aI135
aI136
aI137
aI1162
aI651
aI652
aI141
aI1166
aI655
aI1168
aI145
aI1171
aI90
aI1173
aI150
aI151
aI152
aI153
aI154
aI155
aI156
aI157
aI158
aI1183
aI160
aI1185
aI162
aI165
aI166
aI1191
aI1193
aI171
aI173
aI1199
aI1201
aI690
aI1139
aI1209
aI1211
aI1141
aI119
aI209
aI728
aI730
aI220
aI1146
aI1248
aI1250
aI227
aI1252
aI1254
aI977
aI1148
aI144
aI1261
aI1262
aI772
aI1266
aI1268
aI1150
aI250
aI1066
aI981
aI1152
aI770
aI771
aI260
aI773
aI777
aI111
aI130
aI640
aI797
aI133
aI140
aI1135
aI1334
aI827
aI138
aI139
aI829
aI113
aI1164
aI845
aI56
aI1364
aI142
aI983
aI345
aI346
aI1372
aI1377
aI1380
aI870
aI1386
aI877
aI1390
aI879
aI881
aI883
aI887
aI889
aI1257
aI892
aI1002
aI894
aI149
aI897
aI899
aI901
aI903
aI905
aI907
aI909
aI911
aI1176
aI947
aI269
aI1006
aI923
aI1178
aI927
aI929
aI931
aI933
aI935
aI424
aI937
aI426
aI939
aI428
aI941
aI430
aI925
aI945
aI435
aI437
aI951
aI953
aI159
aI492
aI959
aI799
aI961
aI502
aI459
aI972
aI461
aI974
aI333
aI504
aI979
aI78
aI471
aI473
aI986
aI988
aI478
aI991
aI480
aI993
aI996
aI998
aI337
aI1000
aI490
aI1004
aI1159
aI1008
aI1010
aI83
aI1012
aI1014
aI1016
aI1018
aI1020
aI1022
aI1365
atRp413
sS'/home/april/anaconda/lib/python2.7/site-packages/numpy/fft/helper.py'
p414
g3
((lp415
I3
aI6
aI72
aI10
aI11
aI13
aI8
aI119
atRp416
sS'/home/april/anaconda/lib/python2.7/site-packages/numpy/core/defchararray.py'
p417
g3
((lp418
I2048
aI2566
aI17
aI2067
aI20
aI21
aI22
aI23
aI24
aI25
aI27
aI28
aI29
aI30
aI31
aI32
aI1057
aI34
aI35
aI36
aI37
aI39
aI40
aI44
aI45
aI46
aI48
aI565
aI2104
aI62
aI19
aI608
aI2082
aI1092
aI2117
aI1607
aI531
aI1123
aI85
aI2139
aI96
aI1979
aI2151
aI1642
aI2069
aI2579
aI120
aI2175
aI1154
aI1671
aI2186
aI1914
aI144
aI2199
aI708
aI1182
aI1183
aI2212
aI1701
aI681
aI2224
aI2163
aI2741
aI2081
aI2237
aI193
aI1732
aI33
aI2250
aI1058
aI2262
aI1572
aI732
aI1245
aI1246
aI805
aI2275
aI2287
aI2288
aI241
aI756
aI1280
aI1281
aI260
aI2311
aI780
aI642
aI2323
aI217
aI286
aI2335
aI2336
aI1317
aI2346
aI2358
aI314
aI830
aI2371
aI2383
aI1360
aI1873
aI1874
aI1875
aI340
aI854
aI2022
aI2407
aI2408
aI879
aI1393
aI2418
aI2419
aI1909
aI377
aI378
aI2431
aI903
aI904
aI1929
aI2443
aI1421
aI1939
aI2455
aI1949
aI69
aI2467
aI1959
aI2128
aI1451
aI2479
aI1969
aI441
aI2491
aI1989
aI966
aI2503
aI2000
aI2516
aI1498
aI2011
aI2384
aI2530
aI486
aI1001
aI2542
aI2033
aI169
aI2554
aI2045
aI1534
atRp419
sS'/home/april/anaconda/lib/python2.7/functools.py'
p420
g3
((lp421
I32
aI33
aI34
aI35
aI37
aI50
aI51
atRp422
sS'/home/april/anaconda/lib/python2.7/site-packages/numpy/fft/__init__.py'
p423
g3
((lp424
I2
aI4
aI5
aI7
aI8
aI9
atRp425
sS'/home/april/anaconda/lib/python2.7/site-packages/scipy/sparse/sparsetools/bsr.py'
p426
g3
((lp427
I263
aI9
aI10
aI11
aI12
aI141
aI14
aI399
aI16
aI20
aI21
aI22
aI24
aI25
aI26
aI27
aI30
aI31
aI32
aI48
aI35
aI549
aI684
aI303
aI176
aI51
aI57
aI62
aI63
aI64
aI449
aI71
aI584
aI13
aI211
aI15
aI349
aI734
aI784
aI106
aI499
aI634
atRp428
sS'/home/april/anaconda/lib/python2.7/site-packages/numpy/oldnumeric/functions.py'
p429
g3
((lp430
I3
aI4
aI5
aI6
aI8
aI9
aI10
aI11
aI12
aI13
aI15
aI18
aI21
aI24
aI27
aI30
aI33
aI36
aI39
aI42
aI45
aI48
aI51
aI60
aI64
aI65
aI67
aI73
aI77
aI81
aI85
aI89
aI96
aI99
aI103
aI107
aI110
aI113
aI117
aI120
aI123
atRp431
sS'/home/april/anaconda/lib/python2.7/site-packages/scipy/lib/decorator.py'
p432
g3
((lp433
I29
aI31
aI33
aI35
aI37
aI38
aI39
aI41
aI43
aI44
aI58
aI61
aI62
aI63
aI65
aI66
aI67
aI68
aI70
aI71
aI72
aI73
aI74
aI76
aI81
aI86
aI87
aI88
aI89
aI90
aI92
aI93
aI95
aI96
aI97
aI98
aI99
aI100
aI101
aI102
aI103
aI104
aI105
aI106
aI107
aI109
aI111
aI112
aI115
aI117
aI118
aI119
aI120
aI121
aI123
aI125
aI126
aI127
aI130
aI131
aI134
aI136
aI137
aI138
aI139
aI142
aI143
aI144
aI145
aI146
aI148
aI150
aI151
aI152
aI153
aI155
aI156
aI157
aI158
aI159
aI161
aI162
aI163
aI164
aI166
aI171
aI172
aI173
aI174
aI175
aI177
aI178
aI179
aI186
aI187
aI188
aI189
aI191
aI192
aI193
aI194
aI195
aI196
aI197
aI200
aI205
aI206
aI209
aI210
aI211
aI212
aI213
aI214
aI216
aI219
aI220
aI223
aI224
aI225
aI226
aI227
aI228
aI229
aI230
atRp434
sS'/home/april/anaconda/lib/python2.7/site-packages/scipy/linalg/decomp_schur.py'
p435
g3
((lp436
I160
aI1
aI2
aI4
aI5
aI7
aI170
aI11
aI12
aI13
aI15
aI17
aI10
aI20
aI21
aI183
aI152
aI153
aI155
aI156
aI157
atRp437
sS'/home/april/anaconda/lib/python2.7/site-packages/scipy/sparse/linalg/dsolve/umfpack/__init__.py'
p438
g3
((lp439
I173
aI174
aI176
aI178
aI179
aI180
atRp440
sS'/home/april/anaconda/lib/python2.7/site-packages/scipy/linalg/matfuncs.py'
p441
g3
((lp442
I5
aI7
aI8
aI9
aI11
aI268
aI141
aI15
aI16
aI20
aI21
aI22
aI23
aI24
aI25
aI26
aI27
aI28
aI29
aI31
aI32
aI418
aI35
aI292
aI42
aI172
aI175
aI316
aI196
aI140
aI81
aI340
aI220
aI109
aI244
atRp443
sS'/home/april/anaconda/lib/python2.7/site-packages/scipy/stats/kde.py'
p444
g3
((lp445
I404
aI23
aI26
aI27
aI29
aI31
aI32
aI35
aI292
aI38
aI41
aI430
aI433
aI181
aI182
aI439
aI244
aI190
aI437
aI326
aI358
aI500
aI246
aI20
atRp446
sS'/home/april/anaconda/lib/python2.7/urlparse.py'
p447
g3
((lp448
I144
aI219
aI142
aI182
aI177
aI173
aI174
aI175
aI176
aI209
aI178
aI147
aI148
aI181
aI214
aI216
aI180
aI218
aI143
aI220
atRp449
sS'/home/april/anaconda/lib/python2.7/unittest/runner.py'
p450
g3
((lp451
I128
aI1
aI3
aI4
aI6
aI7
aI9
aI12
aI13
aI14
aI17
aI22
aI28
aI32
aI33
aI34
aI36
aI43
aI73
aI50
aI137
aI57
aI65
aI140
aI81
aI89
aI97
aI105
aI111
aI119
aI124
aI125
aI127
atRp452
sS'/home/april/anaconda/lib/python2.7/opcode.py'
p453
g3
((lp454
I5
aI7
aI8
aI9
aI12
aI14
aI15
aI16
aI17
aI18
aI19
aI20
aI22
aI23
aI24
aI25
aI27
aI28
aI29
aI31
aI32
aI33
aI35
aI36
aI37
aI39
aI40
aI41
aI46
aI47
aI48
aI49
aI50
aI51
aI53
aI54
aI55
aI56
aI57
aI59
aI61
aI62
aI63
aI64
aI65
aI66
aI67
aI68
aI69
aI70
aI71
aI72
aI73
aI74
aI75
aI77
aI78
aI79
aI80
aI82
aI83
aI84
aI85
aI87
aI88
aI89
aI90
aI91
aI92
aI93
aI94
aI95
aI96
aI97
aI98
aI99
aI100
aI101
aI103
aI104
aI105
aI106
aI107
aI108
aI109
aI110
aI111
aI112
aI113
aI114
aI115
aI116
aI117
aI118
aI119
aI120
aI121
aI122
aI124
aI126
aI127
aI128
aI129
aI130
aI131
aI132
aI133
aI134
aI135
aI136
aI137
aI138
aI139
aI140
aI141
aI142
aI143
aI144
aI145
aI146
aI147
aI148
aI149
aI150
aI151
aI152
aI153
aI155
aI157
aI158
aI159
aI160
aI162
aI163
aI164
aI165
aI166
aI167
aI169
aI170
aI171
aI172
aI173
aI174
aI175
aI176
aI177
aI178
aI179
aI181
aI182
aI183
aI185
aI187
aI188
aI189
aI190
aI192
atRp455
sS'/home/april/anaconda/lib/python2.7/site-packages/numpy/core/fromnumeric.py'
p456
g3
((lp457
I2
aI491
aI1029
aI6
aI7
aI8
aI9
aI10
aI11
aI12
aI1422
aI15
aI16
aI17
aI18
aI19
aI1172
aI2222
aI22
aI24
aI25
aI1563
aI30
aI5
aI2592
aI2593
aI923
aI684
aI301
aI46
aI175
aI817
aI1716
aI398
aI1847
aI2022
aI2107
aI2108
aI2109
aI2110
aI1087
aI2112
aI741
aI1547
aI1989
aI2118
aI33
aI2387
aI1365
aI599
aI2185
aI347
aI2268
aI20
aI2405
aI2491
aI1636
aI1254
aI1638
aI1639
aI1802
aI1643
aI108
aI1517
aI878
aI1529
aI1299
aI446
aI758
aI1785
aI2314
aI2111
aI1918
atRp458
sS'/home/april/anaconda/lib/python2.7/site-packages/numpy/core/memmap.py'
p459
g3
((lp460
I192
aI193
aI3
aI1
aI285
aI273
aI9
aI10
aI11
aI13
aI14
aI15
aI16
aI17
aI20
aI7
aI4
aI5
aI189
aI191
atRp461
sS'/home/april/anaconda/lib/python2.7/ssl.py'
p462
g3
((lp463
I363
aI262
aI392
aI269
aI401
aI402
aI107
aI404
aI154
aI282
aI290
aI91
aI420
aI294
aI167
aI92
aI301
aI174
aI434
aI307
aI183
aI56
aI58
aI60
aI190
aI63
aI64
aI65
aI66
aI459
aI453
aI330
aI62
aI76
aI77
aI78
aI335
aI80
aI82
aI211
aI340
aI377
aI88
aI90
aI79
aI220
aI93
aI97
aI100
aI276
aI104
aI106
aI235
aI108
aI109
aI110
aI83
aI245
aI376
aI84
aI378
aI379
aI380
atRp464
sS'/home/april/anaconda/lib/python2.7/site-packages/scipy/optimize/_root.py'
p465
g3
((lp466
I19
aI16
aI7
aI8
aI10
aI12
aI210
aI14
aI207
aI208
aI209
aI18
aI211
aI20
aI23
aI24
aI189
aI190
aI191
atRp467
sS'/home/april/anaconda/lib/python2.7/site-packages/numpy/testing/utils.py'
p468
g3
((lp469
I655
aI3
aI1006
aI5
aI1286
aI1415
aI8
aI9
aI10
aI11
aI13
aI14
aI1389
aI16
aI17
aI18
aI19
aI20
aI110
aI22
aI1431
aI24
aI184
aI1181
aI1438
aI1440
aI1441
aI1443
aI1444
aI37
aI1446
aI7
aI1068
aI1133
aI814
aI125
aI6
aI1416
aI1489
aI883
aI54
aI1417
aI952
aI1337
aI186
aI316
aI1418
aI1419
aI569
aI1430
aI1351
aI15
aI75
aI205
aI721
aI1364
aI1422
aI1243
aI185
aI1380
aI1115
aI1424
aI570
aI1374
aI471
aI96
aI1377
aI1379
aI356
aI1425
aI1002
aI109
aI1134
aI111
aI1394
aI1427
aI150
aI886
aI1428
aI1021
aI1429
atRp470
sS'/home/april/anaconda/lib/python2.7/new.py'
p471
g3
((lp472
I5
aI6
aI7
aI8
aI9
aI11
aI12
aI13
aI14
aI15
aI17
atRp473
sS'/home/april/anaconda/lib/python2.7/site-packages/scipy/sparse/csr.py'
p474
g3
((lp475
I1
aI3
aI132
aI5
aI7
aI10
aI12
aI13
aI15
aI17
aI19
aI22
aI152
aI281
aI412
aI308
aI183
aI314
aI188
aI138
aI320
aI363
aI108
aI110
aI115
atRp476
sS'/home/april/anaconda/lib/python2.7/site-packages/scipy/optimize/optimize.py'
p477
g3
((lp478
I1542
aI1543
aI2571
aI17
aI22
aI23
aI24
aI25
aI26
aI28
aI30
aI31
aI32
aI33
aI35
aI549
aI40
aI41
aI43
aI45
aI49
aI51
aI52
aI3128
aI57
aI2107
aI63
aI71
aI2120
aI2121
aI2122
aI1101
aI1102
aI1103
aI103
aI616
aI700
aI110
aI2237
aI113
aI2238
aI122
aI123
aI126
aI1667
aI3204
aI1669
aI1670
aI135
aI141
aI144
aI1683
aI660
aI1686
aI153
aI666
aI667
aI670
aI1717
aI182
aI698
aI699
aI1212
aI1213
aI1214
aI2239
aI213
aI242
aI111
aI274
aI792
aI793
aI794
aI286
aI287
aI1830
aI1323
aI1324
aI1325
aI2361
aI2374
aI2375
aI1887
aI1888
aI1901
aI386
aI387
aI388
aI104
aI1945
aI1946
aI930
aI931
aI1480
aI1481
aI2006
aI1823
atRp479
sS'/home/april/anaconda/lib/python2.7/unittest/signals.py'
p480
g3
((lp481
I1
aI2
aI4
aI6
aI41
aI10
aI45
aI48
aI49
aI9
aI57
aI28
aI42
atRp482
sS'/home/april/anaconda/lib/python2.7/site-packages/scipy/special/__init__.py'
p483
g3
((lp484
I544
aI546
aI547
aI527
aI529
aI531
aI533
aI534
aI535
aI536
aI537
aI538
aI540
aI542
aI543
atRp485
sS'/home/april/anaconda/lib/python2.7/dis.py'
p486
g3
((lp487
I1
aI3
aI4
aI6
aI7
aI200
aI9
aI10
aI11
aI13
aI110
aI111
aI16
aI178
aI51
aI14
aI150
aI152
aI61
aI223
atRp488
sS'/home/april/anaconda/lib/python2.7/site-packages/numpy/lib/type_check.py'
p489
g3
((lp490
I384
aI3
aI4
aI5
aI6
aI8
aI9
aI138
aI11
aI268
aI13
aI15
aI541
aI542
aI543
aI544
aI545
aI546
aI547
aI548
aI549
aI169
aI304
aI309
aI439
aI72
aI204
aI463
aI464
aI465
aI466
aI467
aI468
aI469
aI470
aI471
aI472
aI473
aI474
aI475
aI476
aI477
aI478
aI479
aI480
aI481
aI482
aI483
aI484
aI487
aI104
aI234
atRp491
sS'/home/april/anaconda/lib/python2.7/site-packages/numpy/lib/scimath.py'
p492
g3
((lp493
I257
aI515
aI211
aI305
aI169
aI339
aI471
aI428
aI143
aI385
aI17
aI91
aI19
aI20
aI117
aI22
aI23
aI24
aI25
aI27
aI29
atRp494
sS'/home/april/anaconda/lib/python2.7/site-packages/scipy/integrate/quadpack.py'
p495
g3
((lp496
I386
aI3
aI644
aI5
aI7
aI8
aI9
aI10
aI651
aI12
aI141
aI14
aI143
aI17
aI643
aI20
aI301
aI438
aI445
aI446
aI332
aI142
aI635
aI621
aI622
aI625
aI503
aI634
aI379
aI638
atRp497
sS'/home/april/anaconda/lib/python2.7/copy.py'
p498
g3
((lp499
I72
aI74
aI75
aI76
aI114
atRp500
sS'/home/april/anaconda/lib/python2.7/site-packages/scipy/sparse/linalg/interface.py'
p501
g3
((lp502
I1
aI363
aI4
aI5
aI7
aI265
aI10
aI268
aI271
aI275
aI276
aI150
aI225
aI286
aI289
aI219
aI292
aI296
aI297
aI307
aI310
aI313
aI317
aI318
aI191
aI194
aI70
aI71
aI330
aI336
aI209
aI339
aI213
aI342
aI346
aI347
aI96
aI3
aI357
aI103
aI234
aI231
aI364
aI237
aI368
aI371
aI374
aI247
aI377
aI381
aI254
aI255
atRp503
sS'/home/april/anaconda/lib/python2.7/site-packages/scipy/__config__.py'
p504
g3
((lp505
I3
aI5
aI6
aI7
aI8
aI9
aI10
aI11
aI12
aI13
aI14
aI16
aI20
atRp506
sS'/home/april/anaconda/lib/python2.7/site-packages/numpy/core/records.py'
p507
g3
((lp508
I456
aI389
aI390
aI391
aI392
aI265
aI141
aI142
aI656
aI148
aI407
aI665
aI666
aI47
aI284
aI36
aI38
aI167
aI40
aI41
aI42
aI43
aI44
aI45
aI431
aI49
aI51
aI52
aI53
aI54
aI55
aI56
aI57
aI58
aI571
aI60
aI61
aI62
aI63
aI64
aI71
aI72
aI74
aI203
aI462
aI466
aI83
aI214
aI216
aI217
aI220
aI733
aI734
aI223
aI635
aI485
aI572
aI59
aI502
aI503
aI251
aI636
atRp509
sS'/home/april/anaconda/lib/python2.7/site-packages/scipy/sparse/csc.py'
p510
g3
((lp511
I128
aI1
aI2
aI4
aI6
aI8
aI10
aI11
aI13
aI14
aI143
aI16
aI18
aI21
aI155
aI173
aI175
aI184
aI193
aI199
aI15
aI110
aI112
aI117
aI122
atRp512
sS'/home/april/anaconda/lib/python2.7/unittest/util.py'
p513
g3
((lp514
I1
aI98
aI100
aI5
aI135
aI8
aI7
aI2
aI142
aI18
aI21
aI62
atRp515
sS'/home/april/anaconda/lib/python2.7/site-packages/numpy/oldnumeric/ufuncs.py'
p516
g3
((lp517
I1
aI2
aI3
aI4
aI5
aI6
aI7
aI8
aI9
aI10
aI12
atRp518
sS'/home/april/anaconda/lib/python2.7/site-packages/scipy/stats/mstats_basic.py'
p519
g3
((lp520
I1536
aI6
aI11
aI13
aI14
aI16
aI17
aI18
aI19
aI20
aI21
aI22
aI23
aI24
aI25
aI26
aI687
aI28
aI29
aI30
aI31
aI32
aI33
aI34
aI35
aI36
aI37
aI38
aI39
aI42
aI43
aI44
aI45
aI47
aI49
aI50
aI54
aI55
aI56
aI58
aI66
aI70
aI780
aI1378
aI889
aI80
aI92
aI1043
aI102
aI621
aI1648
aI1139
aI1142
aI1667
aI646
aI647
aI650
aI1559
aI1164
aI1165
aI144
aI1690
aI1693
aI1699
aI168
aI1199
aI1710
aI1711
aI688
aI691
aI1397
aI1200
aI1239
aI216
aI1242
aI1243
aI1257
aI1258
aI751
aI1277
aI1278
aI555
aI776
aI777
aI268
aI272
aI1297
aI275
aI792
aI282
aI795
aI285
aI1670
aI810
aI27
aI817
aI1842
aI820
aI2014
aI312
aI319
aI1856
aI1562
aI323
aI330
aI335
aI1376
aI1168
aI866
aI1381
aI1383
aI1386
aI1390
aI1393
aI1906
aI885
aI886
aI1400
aI1913
aI892
aI1408
aI1411
aI903
aI399
aI1938
aI1956
aI1961
aI1963
aI1964
aI1972
aI950
aI953
aI969
aI1997
aI1489
aI1615
aI478
aI1505
aI1508
aI1511
aI1514
aI1005
aI766
aI1533
atRp521
sS'/home/april/anaconda/lib/python2.7/warnings.py'
p522
g3
((lp523
I342
aI88
aI19
aI89
aI72
aI57
aI58
aI59
aI60
aI61
aI63
aI64
aI65
aI67
aI68
aI69
aI326
aI327
aI328
aI84
aI85
aI86
aI343
aI344
aI345
aI346
aI92
aI353
aI356
aI358
aI359
aI340
atRp524
sS'/home/april/anaconda/lib/python2.7/site-packages/numpy/__config__.py'
p525
g3
((lp526
I3
aI5
aI6
aI7
aI8
aI9
aI10
aI11
aI12
aI13
aI15
aI19
atRp527
sS'/home/april/anaconda/lib/python2.7/site-packages/numpy/random/__init__.py'
p528
g3
((lp529
I96
aI97
aI98
aI99
aI101
aI104
aI105
aI107
aI114
aI115
aI116
aI88
aI90
aI92
aI93
aI95
atRp530
sS'/home/april/anaconda/lib/python2.7/weakref.py'
p531
g3
((lp532
I249
aI250
aI244
aI245
atRp533
sS'/home/april/anaconda/lib/python2.7/site-packages/numpy/fft/info.py'
p534
g3
((lp535
I177
aI175
atRp536
sS'/home/april/anaconda/lib/python2.7/site-packages/scipy/stats/__init__.py'
p537
g3
((lp538
I321
aI322
aI324
aI325
aI326
aI327
aI328
aI329
aI330
aI331
aI334
aI336
aI337
atRp539
sS'/home/april/anaconda/lib/python2.7/site-packages/scipy/optimize/nonlin.py'
p540
g3
((lp541
I1026
aI1028
aI517
aI519
aI685
aI1041
aI531
aI534
aI537
aI540
aI549
aI550
aI177
aI1065
aI559
aI563
aI568
aI1092
aI1101
aI696
aI1124
aI110
aI114
aI116
aI117
aI118
aI119
aI120
aI121
aI122
aI1147
aI124
aI125
aI126
aI130
aI131
aI138
aI139
aI142
aI146
aI1305
aI664
aI665
aI154
aI161
aI674
aI677
aI170
aI1195
aI1197
aI1201
aI1205
aI694
aI1208
aI1211
aI1214
aI704
aI1217
aI1483
aI1220
aI1251
aI1224
aI714
aI1239
aI1241
aI218
aI1245
aI222
aI223
aI224
aI123
aI228
aI229
aI742
aI1257
aI1260
aI1264
aI754
aI760
aI766
aI1493
aI230
aI1284
aI1286
aI777
aI1292
aI1296
aI1496
aI786
aI1299
aI1302
aI793
aI1308
aI1311
aI1499
aI804
aI1322
aI815
aI1248
aI227
aI1254
aI370
aI1391
aI1393
aI1394
aI373
aI374
aI901
aI904
aI748
aI1430
aI1177
aI1435
aI418
aI1445
aI936
aI938
aI1452
aI430
aI431
aI432
aI1462
aI964
aI454
aI968
aI971
aI978
aI1492
aI981
aI1494
aI1495
aI984
aI1497
aI1498
aI987
aI1500
aI481
aI997
aI1512
aI1514
aI1515
aI1516
aI1517
aI1518
aI1519
aI1520
aI1521
aI1522
aI1524
aI1525
aI1526
aI1527
aI1528
aI1529
aI1530
atRp542
sS'/home/april/anaconda/lib/python2.7/site-packages/scipy/sparse/linalg/isolve/lgmres.py'
p543
g3
((lp544
I4
aI6
aI7
aI8
aI9
aI11
aI14
aI20
aI21
atRp545
sS'/home/april/anaconda/lib/python2.7/site-packages/scipy/sparse/linalg/eigen/__init__.py'
p546
g3
((lp547
I8
aI9
aI11
aI12
aI14
aI15
aI16
aI17
atRp548
sS'/home/april/anaconda/lib/python2.7/site-packages/scipy/linalg/_solvers.py'
p549
g3
((lp550
I1
aI6
aI8
aI9
aI11
aI12
aI13
aI14
aI80
aI17
aI115
aI20
aI150
aI215
aI16
atRp551
sS'/home/april/anaconda/lib/python2.7/site-packages/numpy/core/info.py'
p552
g3
((lp553
I83
aI85
aI86
atRp554
sS'/home/april/anaconda/lib/python2.7/site-packages/numpy/core/getlimits.py'
p555
g3
((lp556
I2
aI4
aI6
aI7
aI8
aI9
aI11
aI13
aI14
aI16
aI17
aI18
aI19
aI22
aI87
aI89
aI91
aI92
aI93
aI98
aI99
aI100
aI101
aI102
aI103
aI104
aI105
aI106
aI108
aI109
aI111
aI116
aI117
aI119
aI120
aI121
aI122
aI124
aI125
aI126
aI127
aI128
aI129
aI130
aI131
aI132
aI133
aI145
aI146
aI147
aI148
aI149
aI151
aI152
aI153
aI154
aI155
aI156
aI157
aI158
aI159
aI160
aI161
aI162
aI163
aI164
aI165
aI166
aI167
aI168
aI170
aI183
aI192
aI237
aI239
aI240
aI242
aI243
aI244
aI247
aI248
aI249
aI250
aI253
aI265
aI267
aI269
aI270
aI271
aI272
aI275
aI276
aI277
aI279
aI281
aI291
aI295
atRp557
sS'/home/april/anaconda/lib/python2.7/site-packages/scipy/sparse/linalg/isolve/minres.py'
p558
g3
((lp559
I1
aI322
aI3
aI4
aI6
aI38
aI7
aI41
aI42
aI43
aI44
aI45
aI19
aI21
aI9
atRp560
sS'/home/april/anaconda/lib/python2.7/sre_parse.py'
p561
g3
((lp562
I513
aI514
aI171
aI517
aI519
aI172
aI87
aI524
aI526
aI527
aI529
aI530
aI531
aI532
aI533
aI534
aI536
aI538
aI431
aI540
aI541
aI542
aI543
aI545
aI546
aI547
aI548
aI549
aI551
aI606
aI521
aI95
aI579
aI667
aI581
aI582
aI71
aI72
aI74
aI75
aI76
aI77
aI78
aI591
aI81
aI82
aI83
aI85
aI697
aI600
aI601
aI603
aI92
aI93
aI94
aI607
aI96
aI702
aI636
aI638
aI128
aI642
aI643
aI132
aI133
aI134
aI647
aI136
aI649
aI650
aI651
aI140
aI143
aI144
aI145
aI146
aI147
aI148
aI149
aI150
aI151
aI664
aI153
aI154
aI155
aI156
aI157
aI158
aI162
aI163
aI164
aI165
aI166
aI679
aI168
aI681
aI682
aI683
aI684
aI173
aI686
aI175
aI176
aI689
aI691
aI180
aI181
aI182
aI184
aI185
aI186
aI187
aI188
aI189
aI190
aI193
aI194
aI195
aI197
aI198
aI199
aI200
aI201
aI203
aI204
aI205
aI212
aI215
aI219
aI221
aI222
aI224
aI228
aI229
aI230
aI231
aI232
aI233
aI234
aI235
aI236
aI244
aI250
aI252
aI253
aI425
aI640
aI260
aI261
aI262
aI263
aI264
aI265
aI266
aI267
aI268
aI275
aI674
aI280
aI282
aI290
aI291
aI292
aI646
aI294
aI296
aI297
aI305
aI306
aI307
aI308
aI309
aI310
aI311
aI312
aI313
aI314
aI315
aI319
aI320
aI322
aI323
aI326
aI327
aI328
aI329
aI331
aI332
aI333
aI334
aI342
aI345
aI346
aI347
aI358
aI359
aI694
aI382
aI661
aI385
aI386
aI387
aI388
aI389
aI390
aI391
aI392
aI394
aI396
aI397
aI398
aI399
aI400
aI152
aI402
aI665
aI413
aI414
aI69
aI416
aI418
aI419
aI70
aI422
aI423
aI688
aI668
aI426
aI427
aI428
aI429
aI430
aI669
aI432
aI433
aI436
aI438
aI439
aI445
aI446
aI449
aI450
aI452
aI453
aI454
aI456
aI460
aI461
aI462
aI465
aI466
aI467
aI471
aI473
aI475
aI476
aI477
aI478
aI480
aI481
aI593
aI167
aI594
aI595
aI169
aI170
atRp563
sS'/home/april/anaconda/lib/python2.7/tempfile.py'
p564
g3
((lp565
I517
aI599
aI580
aI18
aI21
aI22
aI23
aI24
aI25
aI26
aI539
aI543
aI32
aI33
aI546
aI35
aI549
aI38
aI553
aI42
aI43
aI557
aI48
aI563
aI570
aI59
aI60
aI63
aI65
aI66
aI68
aI69
aI71
aI72
aI586
aI75
aI76
aI589
aI80
aI596
aI86
aI87
aI602
aI608
aI100
aI614
aI108
aI114
aI117
aI118
aI120
aI124
aI132
aI534
aI135
aI148
aI176
aI34
aI214
aI216
aI37
aI230
aI252
aI256
aI258
aI270
aI560
aI307
aI338
aI368
aI374
aI376
aI382
aI577
aI394
aI401
aI407
aI409
aI416
aI421
aI583
aI430
aI431
aI462
aI468
aI469
aI84
aI592
aI497
aI501
aI502
aI504
aI505
aI511
atRp566
sS'randint.py'
p567
g3
((lp568
I1
aI2
aI3
aI4
aI5
aI7
aI11
aI12
aI13
aI15
aI17
aI18
aI25
aI26
aI27
aI29
aI31
aI32
aI33
aI35
aI36
aI38
aI44
aI58
aI72
aI74
aI75
aI76
aI77
aI78
aI79
aI80
aI85
atRp569
sS'/home/april/anaconda/lib/python2.7/site-packages/numpy/polynomial/laguerre.py'
p570
g3
((lp571
I513
aI1238
aI1543
aI397
aI1301
aI1176
aI68
aI1058
aI578
aI193
aI299
aI1712
aI947
aI1588
aI184
aI187
aI60
aI62
aI63
aI64
aI65
aI66
aI196
aI69
aI70
aI71
aI72
aI73
aI75
aI1742
aI851
aI724
aI78
aI1366
aI348
aI1117
aI59
aI232
aI1003
aI1647
aI190
aI632
aI447
aI124
atRp572
sS'/home/april/anaconda/lib/python2.7/site-packages/numpy/polynomial/hermite.py'
p573
g3
((lp574
I515
aI726
aI449
aI1544
aI1367
aI194
aI1718
aI400
aI1302
aI1176
aI197
aI1058
aI582
aI303
aI200
aI947
aI1590
aI59
aI188
aI62
aI191
aI64
aI65
aI66
aI68
aI69
aI70
aI71
aI72
aI73
aI74
aI76
aI79
aI851
aI1750
aI1239
aI1117
aI351
aI60
aI1003
aI236
aI1649
aI63
aI636
aI125
atRp575
sS'/home/april/anaconda/lib/python2.7/site-packages/scipy/sparse/extract.py'
p576
g3
((lp577
I2
aI4
aI6
aI8
aI11
aI45
aI14
aI111
atRp578
sS'/home/april/anaconda/lib/python2.7/site-packages/numpy/compat/py3k.py'
p579
g3
((lp580
I65
aI61
aI67
aI4
aI6
aI7
aI8
aI41
aI42
aI43
aI44
aI45
aI12
aI47
aI50
aI55
aI58
aI10
aI62
aI63
atRp581
sS'/home/april/anaconda/lib/python2.7/site-packages/scipy/linalg/lapack.py'
p582
g3
((lp583
I224
aI227
aI228
aI229
aI232
aI233
aI234
aI235
aI206
aI239
aI208
aI210
aI213
aI215
aI216
aI217
aI201
aI222
aI223
atRp584
sS'/home/april/anaconda/lib/python2.7/site-packages/numpy/core/numerictypes.py'
p585
g3
((lp586
I733
aI343
aI258
aI387
aI856
aI647
aI870
aI89
aI536
aI537
aI785
aI542
aI543
aI544
aI545
aI546
aI547
aI548
aI551
aI92
aI946
aI558
aI349
aI564
aI350
aI287
aI351
aI608
aI779
aI398
aI82
aI867
aI85
aI86
aI87
aI88
aI868
aI783
aI395
aI869
aI96
aI784
aI100
aI101
aI103
aI248
aI786
aI360
aI114
aI787
aI116
aI117
aI118
aI912
aI788
aI703
aI305
aI128
aI388
aI363
aI790
aI449
aI648
aI364
aI650
aI651
aI652
aI653
aI654
aI365
aI656
aI280
aI658
aI659
aI662
aI793
aI152
aI153
aI155
aI329
aI393
aI369
aI890
aI179
aI180
aI182
aI698
aI699
aI373
aI374
aI801
aI207
aI208
aI399
aI213
aI214
aI377
aI217
aI218
aI219
aI220
aI221
aI222
aI223
aI224
aI367
aI227
aI228
aI230
aI232
aI233
aI234
aI235
aI236
aI237
aI239
aI240
aI241
aI242
aI244
aI245
aI246
aI759
aI760
aI249
aI250
aI251
aI252
aI253
aI254
aI255
aI256
aI257
aI770
aI259
aI260
aI261
aI263
aI777
aI778
aI215
aI781
aI782
aI271
aI272
aI273
aI274
aI275
aI276
aI789
aI278
aI791
aI792
aI281
aI794
aI283
aI796
aI797
aI286
aI799
aI288
aI289
aI290
aI293
aI294
aI295
aI296
aI95
aI299
aI300
aI302
aI303
aI304
aI392
aI306
aI307
aI309
aI310
aI311
aI312
aI313
aI314
aI315
aI316
aI394
aI318
aI319
aI320
aI321
aI323
aI324
aI325
aI326
aI327
aI328
aI396
aI330
aI331
aI332
aI386
aI397
aI352
aI852
aI853
aI854
aI855
aI344
aI345
aI346
aI347
aI348
aI861
aI862
aI863
aI864
aI353
aI354
aI355
aI356
aI357
aI358
aI359
aI872
aI361
aI362
aI875
aI876
aI877
aI366
aI317
aI368
aI881
aI370
aI403
aI372
aI885
aI886
aI887
aI889
aI378
aI891
aI893
aI895
aI384
aI385
aI898
aI899
aI900
aI389
aI390
aI391
aI904
aI905
aI906
aI907
aI908
aI909
aI910
aI911
aI400
aI401
aI402
aI915
aI916
aI665
aI408
aI409
aI410
aI411
aI412
aI413
aI415
aI416
aI929
aI931
aI932
aI423
aI424
aI425
aI426
aI427
aI428
aI429
aI432
aI433
aI434
aI435
aI436
aI437
aI438
aI439
aI371
aI442
aI443
aI444
aI445
aI446
aI448
aI961
aI450
aI451
aI452
aI454
aI417
aI456
aI457
aI458
aI459
aI460
aI461
aI462
aI463
aI464
aI465
aI466
aI467
aI468
aI469
aI470
aI471
aI472
aI473
aI474
aI475
aI476
aI115
aI479
aI480
aI481
aI482
aI483
aI484
aI485
aI487
aI902
aI936
atRp587
sS'/home/april/anaconda/lib/python2.7/site-packages/numpy/core/arrayprint.py'
p588
g3
((lp589
I4
aI5
aI6
aI649
aI523
aI524
aI15
aI16
aI17
aI18
aI19
aI22
aI24
aI25
aI538
aI27
aI28
aI29
aI30
aI31
aI32
aI161
aI34
aI37
aI38
aI39
aI40
aI685
aI686
aI712
aI690
aI734
aI696
aI697
aI702
aI448
aI323
aI196
aI456
aI713
aI714
aI591
aI336
aI337
aI215
aI335
aI655
aI222
aI225
aI226
aI740
aI741
aI662
aI748
aI658
aI627
aI633
aI634
aI635
aI636
atRp590
sS'/home/april/anaconda/lib/python2.7/site-packages/numpy/lib/financial.py'
p591
g3
((lp592
I385
aI646
aI8
aI522
aI11
aI13
aI14
aI15
aI16
aI17
aI18
aI20
aI282
aI413
aI31
aI691
aI10
aI582
aI376
aI722
aI211
aI120
aI510
atRp593
sS'/home/april/anaconda/lib/python2.7/socket.py'
p594
g3
((lp595
I103
aI159
aI535
aI526
aI45
aI272
aI164
aI274
aI276
aI238
aI406
aI151
aI152
aI537
aI538
aI154
aI156
aI285
aI231
aI292
aI165
aI167
aI168
aI169
aI172
aI173
aI47
aI48
aI49
aI50
aI179
aI52
aI181
aI183
aI312
aI185
aI58
aI315
aI53
aI192
aI193
aI67
aI68
aI246
aI326
aI199
aI201
aI204
aI206
aI336
aI82
aI212
aI85
aI228
aI90
aI219
aI220
aI221
aI94
aI223
aI96
aI97
aI226
aI227
aI100
aI229
aI230
aI529
aI233
aI235
aI236
aI93
aI239
aI241
aI243
aI244
aI89
aI153
aI84
aI124
aI511
atRp596
sS'/home/april/anaconda/lib/python2.7/site-packages/scipy/version.py'
p597
g3
((lp598
I3
aI4
aI5
aI6
aI7
aI9
atRp599
sS'/home/april/anaconda/lib/python2.7/site-packages/scipy/optimize/_basinhopping.py'
p600
g3
((lp601
I258
aI3
aI4
aI6
aI7
aI8
aI9
aI266
aI11
aI268
aI142
aI15
aI149
aI25
aI32
aI36
aI37
aI171
aI172
aI173
aI253
aI184
aI187
aI65
aI267
aI203
aI210
aI14
aI216
aI604
aI221
aI222
aI225
aI610
aI230
aI233
aI618
aI239
aI117
aI246
aI249
aI250
aI234
aI21
atRp602
sS'/home/april/anaconda/lib/python2.7/site-packages/numpy/lib/arraysetops.py'
p603
g3
((lp604
I160
aI32
aI194
aI195
aI196
aI358
aI199
aI168
aI388
aI237
aI29
aI176
aI281
aI25
aI26
aI27
aI90
aI30
aI159
atRp605
sS'/home/april/anaconda/lib/python2.7/site-packages/scipy/stats/rv.py'
p606
g3
((lp607
I1
aI3
aI4
aI6
aI15
aI30
atRp608
sS'/home/april/anaconda/lib/python2.7/unittest/__init__.py'
p609
g3
((lp610
I64
aI65
aI66
aI69
aI45
aI47
aI48
aI49
aI50
aI51
aI54
aI56
aI58
aI59
aI61
aI62
atRp611
sS'/home/april/anaconda/lib/python2.7/site-packages/numpy/dual.py'
p612
g3
((lp613
I12
aI18
aI19
aI20
aI22
aI23
aI24
aI25
aI28
aI29
aI30
aI31
aI32
aI33
aI35
aI36
aI37
aI38
aI39
aI40
aI41
aI42
aI43
aI44
aI45
aI46
aI48
aI50
aI51
aI53
aI54
aI55
aI57
aI67
atRp614
sS'/home/april/anaconda/lib/python2.7/site-packages/scipy/optimize/slsqp.py'
p615
g3
((lp616
I208
aI67
aI68
aI70
aI422
aI14
aI207
aI16
aI209
aI18
aI20
aI21
aI206
aI23
aI25
aI27
aI30
aI69
atRp617
sS'/home/april/anaconda/lib/python2.7/site-packages/numpy/core/numeric.py'
p618
g3
((lp619
I1
aI1538
aI3
aI4
aI5
aI2566
aI7
aI8
aI9
aI10
aI2571
aI2572
aI2573
aI14
aI15
aI16
aI17
aI2578
aI19
aI2580
aI2581
aI22
aI2583
aI2584
aI25
aI26
aI27
aI28
aI29
aI30
aI31
aI2080
aI34
aI35
aI37
aI44
aI45
aI47
aI49
aI50
aI51
aI52
aI53
aI54
aI56
aI57
aI58
aI59
aI60
aI61
aI62
aI63
aI1600
aI66
aI11
aI1604
aI1605
aI1606
aI1607
aI1608
aI2121
aI1611
aI13
aI120
aI1603
aI20
aI2576
aI1708
aI18
aI2579
aI2494
aI2166
aI2167
aI2168
aI2169
aI2170
aI2171
aI21
aI2173
aI2174
aI2175
aI2176
aI2178
aI1155
aI534
aI1473
aI23
aI2562
aI2585
aI152
aI670
aI1695
aI1696
aI1697
aI674
aI1699
aI1700
aI1701
aI1702
aI679
aI1704
aI1705
aI1706
aI1707
aI2256
aI1709
aI1710
aI1711
aI1712
aI1713
aI1714
aI1715
aI1716
aI1717
aI1718
aI1720
aI6
aI1211
aI1214
aI374
aI2257
aI631
aI207
aI208
aI209
aI210
aI211
aI212
aI213
aI214
aI215
aI216
aI217
aI2266
aI219
aI220
aI2269
aI222
aI2271
aI225
aI2274
aI227
aI228
aI229
aI230
aI231
aI232
aI233
aI234
aI235
aI236
aI237
aI238
aI239
aI240
aI241
aI242
aI243
aI244
aI245
aI246
aI247
aI248
aI2260
aI250
aI252
aI2261
aI1796
aI2262
aI2259
aI2311
aI2312
aI2313
aI2314
aI2315
aI2316
aI2317
aI2318
aI2319
aI2320
aI2321
aI2322
aI2324
aI2267
aI2347
aI733
aI1091
aI2270
aI2359
aI1849
aI826
aI1851
aI1853
aI322
aI2
aI1356
aI226
aI1358
aI1359
aI1360
aI1874
aI1365
aI1884
aI1850
aI672
aI12
aI372
aI1598
aI1666
aI1915
aI900
aI903
aI1602
aI2449
aI915
aI1599
aI410
aI1437
aI1609
aI671
aI2493
aI446
aI2495
aI2497
aI1988
aI1698
aI249
aI591
aI2556
aI1703
aI1362
aI1524
aI1530
aI2559
aI1532
aI1533
aI1535
atRp620
sS'/home/april/anaconda/lib/python2.7/site-packages/scipy/lib/six.py'
p621
g3
((lp622
I1
aI22
aI23
aI24
aI26
aI27
aI31
aI33
aI42
aI43
aI44
aI45
aI46
aI48
aI53
aI54
aI55
aI56
aI57
aI58
aI60
aI67
aI69
aI72
aI74
aI75
aI78
aI80
aI81
aI83
aI84
aI85
aI87
aI88
aI91
aI93
aI94
aI95
aI100
aI102
aI106
aI108
aI109
aI110
aI121
aI122
aI123
aI124
aI126
aI127
aI128
aI131
aI132
aI136
aI137
aI138
aI139
aI140
aI141
aI142
aI143
aI144
aI146
aI147
aI148
aI149
aI150
aI151
aI152
aI153
aI154
aI155
aI156
aI157
aI158
aI159
aI160
aI161
aI162
aI163
aI164
aI165
aI166
aI167
aI168
aI169
aI170
aI171
aI172
aI173
aI174
aI175
aI176
aI177
aI178
aI179
aI180
aI181
aI182
aI184
aI185
aI186
aI188
aI191
aI196
aI207
aI218
aI219
aI221
aI222
aI224
aI225
aI226
aI229
aI230
aI234
aI237
aI246
aI249
aI251
aI254
aI255
aI256
aI259
aI260
aI261
aI262
aI265
aI270
aI275
aI280
aI297
aI300
aI302
aI303
aI304
aI305
aI306
aI309
aI322
aI324
aI325
aI326
aI327
aI328
aI329
aI330
aI331
aI332
aI334
aI336
aI338
aI384
aI387
atRp623
sS'/home/april/anaconda/lib/python2.7/urllib2.py'
p624
g3
((lp625
I512
aI513
aI514
aI516
aI527
aI529
aI530
aI533
aI536
aI539
aI541
aI1055
aI1067
aI1072
aI1077
aI1079
aI1080
aI1082
aI575
aI1090
aI1092
aI1093
aI1095
aI76
aI1102
aI1104
aI1107
aI1110
aI92
aI93
aI94
aI95
aI96
aI97
aI98
aI99
aI100
aI101
aI102
aI103
aI104
aI105
aI107
aI108
aI112
aI1139
aI117
aI631
aI120
aI633
aI122
aI123
aI638
aI129
aI137
aI143
aI147
aI150
aI151
aI152
aI154
aI1221
aI167
aI172
aI176
aI712
aI180
aI181
aI1211
aI1213
aI1216
aI1218
aI1219
aI197
aI710
aI199
aI1224
aI714
aI1227
aI802
aI1233
aI724
aI1237
aI1241
aI1242
aI219
aI1244
aI1245
aI293
aI1249
aI231
aI1259
aI239
aI753
aI242
aI755
aI245
aI758
aI297
aI248
aI254
aI769
aI261
aI779
aI268
aI271
aI1302
aI280
aI283
aI1308
aI286
aI289
aI200
aI1414
aI1320
aI1321
aI301
aI817
aI306
aI819
aI1332
aI311
aI312
aI1226
aI827
aI834
aI323
aI841
aI848
aI1361
aI851
aI877
aI370
aI374
aI890
aI892
aI894
aI386
aI1430
aI902
aI904
aI906
aI1420
aI1423
aI835
aI918
aI1433
aI1436
aI414
aI932
aI1446
aI429
aI943
aI1310
aI952
aI1466
aI955
aI454
aI972
aI984
aI1360
aI994
aI493
aI494
aI496
aI499
aI503
atRp626
sS'/home/april/anaconda/lib/python2.7/site-packages/scipy/stats/morestats.py'
p627
g3
((lp628
I641
aI900
aI5
aI7
aI8
aI10
aI11
aI12
aI13
aI14
aI15
aI1552
aI18
aI531
aI20
aI23
aI24
aI644
aI26
aI1007
aI28
aI1439
aI32
aI418
aI27
aI553
aI1452
aI1070
aI441
aI571
aI1342
aI19
aI452
aI1477
aI1486
aI82
aI1081
aI854
aI377
aI216
aI1175
aI480
aI251
aI1299
aI1519
aI1008
aI147
aI25
aI633
aI634
aI763
aI637
atRp629
sS'/home/april/anaconda/lib/python2.7/site-packages/scipy/sparse/sparsetools/csgraph.py'
p630
g3
((lp631
I9
aI10
aI11
aI12
aI13
aI14
aI15
aI16
aI20
aI21
aI22
aI24
aI25
aI26
aI27
aI30
aI31
aI32
aI35
aI48
aI51
aI57
aI62
aI63
aI64
aI71
atRp632
sS'/home/april/anaconda/lib/python2.7/site-packages/scipy/stats/_binned_statistic.py'
p633
g3
((lp634
I1
aI3
aI4
aI7
aI8
aI103
aI104
aI190
aI191
atRp635
sS'/home/april/anaconda/lib/python2.7/site-packages/scipy/linalg/_decomp_polar.py'
p636
g3
((lp637
I1
aI10
aI3
aI4
aI7
atRp638
sS'/home/april/anaconda/lib/python2.7/site-packages/numpy/lib/function_base.py'
p639
g3
((lp640
I2560
aI2561
aI2562
aI2563
aI2564
aI5
aI6
aI7
aI8
aI9
aI10
aI2571
aI12
aI13
aI2574
aI527
aI16
aI17
aI2578
aI19
aI2580
aI2069
aI2582
aI23
aI24
aI2585
aI26
aI27
aI28
aI29
aI30
aI2565
aI1568
aI35
aI2596
aI2566
aI2599
aI2602
aI2567
aI1117
aI1072
aI3633
aI2569
aI2570
aI3134
aI63
aI2
aI2572
aI3511
aI2126
aI2573
aI593
aI14
aI2575
aI1629
aI3
aI2576
aI2577
aI2668
aI2579
aI4
aI21
aI1664
aI2583
aI1171
aI3220
aI25
aI3099
aI3240
aI3241
aI3242
aI3243
aI3244
aI3245
aI3246
aI2223
aI3250
aI3251
aI1
aI1206
aI3255
aI31
aI32
aI2581
aI720
aI1239
aI1240
aI1241
aI1242
aI1243
aI1245
aI1246
aI225
aI1250
aI1252
aI1253
aI1256
aI2795
aI1274
aI781
aI2329
aI1818
aI1819
aI1820
aI1821
aI1823
aI1824
aI1828
aI1829
aI1830
aI1831
aI1322
aI1839
aI1840
aI1841
aI1843
aI1844
aI1846
aI3384
aI2873
aI829
aI2568
aI1359
aI995
aI2900
aI1875
aI2427
aI1406
aI1928
aI412
aI1949
aI934
aI2999
aI1474
aI15
aI1533
aI2527
aI2528
aI2529
aI2530
aI2531
aI2532
aI2533
aI2534
aI2535
aI2536
aI2537
aI2538
aI2539
aI2540
aI2541
aI2542
aI2543
aI2544
aI2545
aI2546
aI2547
aI2548
aI2549
aI2550
aI2551
aI2552
aI2553
aI2554
aI2555
aI2556
aI1706
aI2559
atRp641
sS'/home/april/anaconda/lib/python2.7/site-packages/scipy/sparse/linalg/dsolve/umfpack/umfpack.py'
p642
g3
((lp643
I6
aI8
aI10
aI11
aI13
aI15
aI16
aI17
aI18
aI19
aI20
aI22
aI25
aI26
aI31
aI46
aI63
aI64
aI65
aI66
aI67
aI68
aI69
aI70
aI71
aI72
aI73
aI74
aI75
aI76
aI77
aI78
aI79
aI80
aI81
aI82
aI83
aI84
aI85
aI86
aI87
aI88
aI89
aI93
aI94
aI95
aI96
aI97
aI98
aI99
aI100
aI101
aI102
aI103
aI104
aI105
aI106
aI107
aI108
aI109
aI110
aI111
aI112
aI616
aI114
aI115
aI116
aI117
aI118
aI119
aI120
aI121
aI122
aI123
aI124
aI125
aI126
aI639
aI128
aI129
aI130
aI131
aI132
aI133
aI134
aI135
aI136
aI137
aI138
aI139
aI140
aI141
aI142
aI143
aI144
aI145
aI146
aI147
aI148
aI149
aI150
aI151
aI152
aI153
aI154
aI155
aI156
aI157
aI158
aI159
aI160
aI161
aI162
aI163
aI164
aI165
aI166
aI113
aI168
aI169
aI170
aI171
aI172
aI173
aI174
aI175
aI176
aI177
aI178
aI179
aI180
aI181
aI182
aI185
aI235
aI236
aI237
aI243
aI246
aI127
aI266
aI273
aI311
aI317
aI326
aI338
aI372
aI407
aI167
aI583
aI454
aI461
aI468
aI474
aI482
aI251
aI491
aI499
aI509
atRp644
sS'/home/april/anaconda/lib/python2.7/site-packages/scipy/sparse/base.py'
p645
g3
((lp646
I1
aI2
aI4
aI5
aI7
aI8
aI10
aI12
aI13
aI16
aI17
aI20
aI21
aI24
aI25
aI29
aI30
aI31
aI32
aI33
aI34
aI35
aI36
aI37
aI38
aI39
aI40
aI41
aI42
aI43
aI44
aI45
aI46
aI47
aI48
aI52
aI55
aI58
aI60
aI61
aI63
aI580
aI583
aI586
aI589
aI592
aI595
aI598
aI93
aI96
aI98
aI101
aI104
aI190
aI631
aI123
aI137
aI516
aI143
aI661
aI150
aI667
aI157
aI688
aI179
aI185
aI702
aI705
aI195
aI119
aI548
aI222
aI227
aI242
aI245
aI248
aI251
aI254
aI257
aI260
aI263
aI266
aI269
aI273
aI276
aI346
aI349
aI352
aI355
aI358
aI373
aI379
aI383
aI386
aI389
aI392
aI395
aI398
aI401
aI426
aI71
aI442
aI445
aI448
aI452
aI455
aI458
aI461
aI481
aI497
atRp647
sS'/home/april/anaconda/lib/python2.7/site-packages/scipy/sparse/construct.py'
p648
g3
((lp649
I2
aI3
aI5
aI7
aI8
aI11
aI396
aI13
aI15
aI272
aI17
aI18
aI19
aI20
aI21
aI22
aI24
aI27
aI426
aI566
aI190
aI64
aI457
aI219
aI353
aI616
atRp650
sS'/home/april/anaconda/lib/python2.7/site-packages/numpy/lib/npyio.py'
p651
g3
((lp652
I1
aI2
aI3
aI5
aI6
aI7
aI8
aI9
aI10
aI11
aI12
aI13
aI14
aI16
aI17
aI18
aI1555
aI20
aI1557
aI25
aI1562
aI1563
aI1565
aI542
aI1055
aI32
aI1569
aI1570
aI518
aI1574
aI1575
aI1577
aI1580
aI1586
aI1590
aI1591
aI1595
aI1596
aI1599
aI589
aI1616
aI1617
aI82
aI1465
aI1295
aI610
aI611
aI612
aI1644
aI110
aI111
aI114
aI120
aI1146
aI1659
aI1148
aI1149
aI126
aI1151
aI1152
aI1666
aI1667
aI1696
aI27
aI181
aI182
aI1725
aI200
aI203
aI34
aI206
aI1746
aI1747
aI1754
aI219
aI222
aI1573
aI1762
aI1147
aI1765
aI1767
aI1660
aI1771
aI1661
aI1150
aI248
aI251
aI1788
aI258
aI263
aI267
aI1805
aI1294
aI271
aI1296
aI1298
aI275
aI1300
aI1304
aI1307
aI1308
aI1413
aI1314
aI1315
aI1316
aI1317
aI1318
aI1325
aI1326
aI1327
aI1328
aI1329
aI1330
aI1333
aI1340
aI1341
aI1344
aI1345
aI1346
aI1347
aI1348
aI1351
aI1359
aI1365
aI1373
aI1376
aI866
aI867
aI1380
aI1382
aI1385
aI1386
aI1388
aI1392
aI1407
aI389
aI1416
aI30
aI1419
aI1837
aI1449
aI1450
aI441
aI1476
aI1478
aI1480
aI1699
aI1498
aI1499
aI1500
aI1501
aI1509
aI1755
aI1515
aI1517
aI1525
aI1526
aI1528
aI1530
aI1531
atRp653
sS'/home/april/anaconda/lib/python2.7/site-packages/scipy/optimize/_trustregion_dogleg.py'
p654
g3
((lp655
I32
aI1
aI2
aI4
aI5
aI6
aI8
aI42
aI11
aI53
aI29
aI30
atRp656
sS'/home/april/anaconda/lib/python2.7/lib-tk/FixTk.py'
p657
g3
((lp658
I1
aI17
aI50
aI14
aI15
aI16
aI49
aI18
aI52
aI53
aI55
atRp659
sS'/home/april/anaconda/lib/python2.7/site-packages/scipy/misc/pilutil.py'
p660
g3
((lp661
I384
aI130
aI7
aI8
aI12
aI13
aI15
aI19
aI20
aI26
aI27
aI29
aI30
aI34
aI167
aI424
aI311
aI196
aI199
aI200
aI342
aI103
atRp662
sS'/home/april/anaconda/lib/python2.7/gzip.py'
p663
g3
((lp664
I386
aI4
aI517
aI8
aI9
aI394
aI11
aI13
aI15
aI17
aI274
aI19
aI406
aI24
aI409
aI27
aI412
aI157
aI150
aI415
aI278
aI164
aI40
aI42
aI43
aI45
aI46
aI138
aI439
aI187
aI10
aI328
aI183
aI336
aI36
aI220
aI479
aI360
aI364
aI146
aI241
aI379
atRp665
sS'/home/april/anaconda/lib/python2.7/site-packages/scipy/optimize/minpack.py'
p666
g3
((lp667
I256
aI257
aI3
aI4
aI6
aI1
aI10
aI12
aI14
aI18
aI150
aI151
aI152
aI40
aI41
aI42
aI443
aI447
aI451
aI583
aI552
aI255
atRp668
sS'/home/april/anaconda/lib/python2.7/httplib.py'
p669
g3
((lp670
I171
aI518
aI523
aI173
aI686
aI534
aI176
aI1059
aI1060
aI1062
aI1063
aI1065
aI1067
aI141
aI1069
aI179
aI180
aI579
aI69
aI70
aI71
aI72
aI73
aI74
aI75
aI76
aI79
aI1213
aI82
aI1107
aI86
aI87
aI88
aI89
aI90
aI91
aI93
aI94
aI96
aI668
aI99
aI100
aI101
aI105
aI106
aI107
aI110
aI111
aI112
aI113
aI114
aI787
aI116
aI117
aI118
aI121
aI122
aI123
aI124
aI637
aI126
aI127
aI1216
aI130
aI131
aI1156
aI133
aI134
aI135
aI136
aI137
aI138
aI139
aI140
aI1218
aI142
aI143
aI1168
aI145
aI146
aI147
aI148
aI149
aI150
aI151
aI1096
aI196
aI154
aI155
aI1180
aI157
aI158
aI159
aI160
aI161
aI1186
aI1150
aI164
aI165
aI166
aI1191
aI168
aI169
aI682
aI683
aI172
aI685
aI174
aI687
aI688
aI689
aI178
aI691
aI692
aI181
aI182
aI1225
aI185
aI186
aI187
aI188
aI189
aI190
aI191
aI192
aI193
aI194
aI195
aI708
aI197
aI198
aI199
aI1224
aI201
aI202
aI204
aI1229
aI1230
aI205
aI208
aI721
aI1235
aI1236
aI206
aI216
aI218
aI207
aI220
aI1246
aI1249
aI1250
aI1252
aI741
aI1255
aI1256
aI1258
aI1259
aI1261
aI1262
aI125
aI1268
aI1269
aI680
aI1274
aI1151
aI1276
aI1277
aI213
aI769
aI1253
aI1284
aI1219
aI777
aI1291
aI1294
aI1240
aI1155
aI1303
aI132
aI1158
aI807
aI1325
aI814
aI1160
aI1333
aI1161
aI1162
aI1221
aI835
aI325
aI335
aI1233
aI1081
aI229
aI1222
aI144
aI363
aI744
aI183
aI200
aI234
aI1206
aI209
aI115
aI402
aI67
aI665
aI1178
aI156
aI945
aI1232
aI956
aI1140
aI673
aI971
aI975
aI1188
aI1103
aI992
aI1190
aI81
aI488
aI177
aI1009
aI170
atRp671
sS'/home/april/anaconda/lib/python2.7/re.py'
p672
g3
((lp673
I228
aI229
aI230
aI231
aI232
aI233
aI237
aI239
aI240
aI243
aI245
aI246
aI137
aI190
atRp674
sS'/home/april/anaconda/lib/python2.7/site-packages/numpy/compat/__init__.py'
p675
g3
((lp676
I10
aI11
aI12
aI13
aI14
aI16
aI17
aI18
atRp677
sS'/home/april/anaconda/lib/python2.7/site-packages/scipy/optimize/cobyla.py'
p678
g3
((lp679
I11
aI171
aI172
aI13
aI15
aI16
aI17
aI18
aI21
aI173
aI24
aI25
aI254
atRp680
sS'/home/april/anaconda/lib/python2.7/genericpath.py'
p681
g3
((lp682
I96
aI97
aI99
aI100
aI101
aI102
aI17
aI18
aI19
aI20
aI21
aI91
aI92
atRp683
sS'/home/april/anaconda/lib/python2.7/unittest/suite.py'
p684
g3
((lp685
I257
aI3
aI5
aI262
aI1
aI264
aI11
aI270
aI16
aI273
aI18
aI19
aI276
aI302
aI279
aI26
aI284
aI157
aI287
aI290
aI35
aI165
aI40
aI299
aI300
aI301
aI46
aI303
aI8
aI23
aI6
aI31
aI62
aI192
aI267
aI69
aI200
aI78
aI56
aI86
aI88
aI37
aI225
aI118
aI72
aI252
aI125
atRp686
sS'/home/april/anaconda/lib/python2.7/site-packages/numpy/ma/__init__.py'
p687
g3
((lp688
I38
aI39
aI40
aI41
aI42
aI44
aI45
aI47
aI48
aI50
aI51
aI52
aI54
aI55
aI56
atRp689
sS'/home/april/anaconda/lib/python2.7/site-packages/numpy/lib/shape_base.py'
p690
g3
((lp691
I1
aI2
aI3
aI5
aI6
aI8
aI9
aI11
aI652
aI407
aI665
aI543
aI298
aI194
aI594
aI348
aI481
aI123
aI356
aI251
aI253
aI766
aI639
atRp692
sS'/home/april/anaconda/lib/python2.7/site-packages/scipy/stats/contingency.py'
p693
g3
((lp694
I65
aI2
aI5
aI7
aI8
aI9
aI10
aI13
aI111
aI16
atRp695
sS'/home/april/anaconda/lib/python2.7/site-packages/scipy/linalg/misc.py'
p696
g3
((lp697
I128
aI1
aI3
aI4
aI5
aI7
aI9
aI12
aI125
atRp698
sS'/home/april/anaconda/lib/python2.7/site-packages/numpy/lib/format.py'
p699
g3
((lp700
I288
aI258
aI198
aI230
aI136
aI138
aI140
aI365
aI142
aI173
aI141
aI145
aI146
aI148
aI470
aI471
aI143
aI415
atRp701
sS'/home/april/anaconda/lib/python2.7/site-packages/scipy/sparse/linalg/isolve/utils.py'
p702
g3
((lp703
I1
aI34
aI3
aI5
aI7
aI9
aI11
aI14
aI15
aI16
aI17
aI18
aI19
aI22
aI30
atRp704
sS'/home/april/anaconda/lib/python2.7/site-packages/scipy/sparse/linalg/__init__.py'
p705
g3
((lp706
I104
aI106
aI108
aI109
aI110
aI111
aI112
aI113
aI114
aI116
aI117
aI118
aI119
atRp707
sS'/home/april/anaconda/lib/python2.7/site-packages/scipy/sparse/dok.py'
p708
g3
((lp709
I1
aI515
aI132
aI389
aI519
aI10
aI523
aI12
aI13
aI15
aI16
aI403
aI20
aI410
aI27
aI541
aI5
aI419
aI548
aI7
aI429
aI440
aI395
aI453
aI75
aI332
aI77
aI462
aI471
aI476
aI485
aI3
aI229
aI362
aI494
aI112
aI114
aI19
aI116
aI119
aI505
aI511
atRp710
sS'/home/april/anaconda/lib/python2.7/site-packages/numpy/oldnumeric/compat.py'
p711
g3
((lp712
I3
aI4
aI5
aI6
aI7
aI9
aI10
aI13
aI14
aI15
aI16
aI17
aI19
aI21
aI25
aI28
aI29
aI30
aI31
aI33
aI35
aI38
aI41
aI43
aI46
aI50
aI61
aI69
aI74
aI77
aI97
aI98
aI106
aI107
aI110
aI111
aI113
aI114
aI116
atRp713
sS'/home/april/anaconda/lib/python2.7/site-packages/numpy/ma/core.py'
p714
g3
((lp715
I3072
aI5251
aI2064
aI1027
aI21
aI24
aI25
aI27
aI28
aI29
aI30
aI31
aI32
aI33
aI34
aI35
aI36
aI37
aI38
aI39
aI40
aI41
aI42
aI43
aI44
aI45
aI46
aI47
aI48
aI6193
aI50
aI51
aI52
aI53
aI54
aI55
aI56
aI4153
aI58
aI59
aI60
aI61
aI62
aI63
aI64
aI65
aI66
aI67
aI68
aI6214
aI2401
aI72
aI73
aI74
aI76
aI2125
aI78
aI79
aI80
aI81
aI83
aI84
aI4181
aI1162
aI87
aI88
aI90
aI94
aI96
aI104
aI105
aI107
aI111
aI112
aI113
aI114
aI6264
aI126
aI127
aI128
aI129
aI130
aI131
aI4228
aI3257
aI138
aI139
aI140
aI141
aI142
aI143
aI144
aI145
aI1164
aI147
aI148
aI150
aI151
aI152
aI153
aI154
aI2206
aI159
aI6305
aI4264
aI6323
aI4809
aI4127
aI5493
aI2763
aI2252
aI2256
aI2257
aI2259
aI2260
aI2262
aI6361
aI2266
aI2270
aI223
aI224
aI225
aI2274
aI2278
aI231
aI2281
aI234
aI2284
aI2287
aI382
aI2301
aI725
aI6400
aI2307
aI2312
aI4366
aI6189
aI2320
aI2776
aI6418
aI2326
aI282
aI4379
aI284
aI4381
aI49
aI297
aI2347
aI2781
aI2782
aI2738
aI6196
aI2783
aI2443
aI2444
aI2786
aI6483
aI6486
aI57
aI6488
aI740
aI6491
aI6493
aI7172
aI741
aI6496
aI4449
aI6502
aI360
aI421
aI2791
aI370
aI403
aI7173
aI2429
aI2430
aI2431
aI2432
aI2433
aI2434
aI2436
aI2438
aI2440
aI2441
aI394
aI395
aI396
aI2445
aI2447
aI2448
aI2449
aI2451
aI2454
aI2455
aI2456
aI2457
aI4506
aI2459
aI2460
aI2458
aI2462
aI2463
aI417
aI2467
aI70
aI422
aI2471
aI425
aI428
aI6579
aI7175
aI2806
aI1157
aI77
aI2517
aI2518
aI2527
aI4576
aI2530
aI2539
aI492
aI2544
aI504
aI767
aI6653
aI2574
aI3160
aI4628
aI537
aI6684
aI3564
aI6686
aI6705
aI6706
aI6707
aI6709
aI2619
aI572
aI573
aI2622
aI2623
aI2624
aI6722
aI6723
aI6724
aI6726
aI583
aI781
aI2640
aI2642
aI2645
aI2646
aI4695
aI1124
aI2650
aI2655
aI2657
aI2660
aI2662
aI3175
aI4732
aI6783
aI2696
aI2697
aI3078
aI2703
aI5187
aI660
aI663
aI2715
aI2716
aI2717
aI4771
aI4774
aI4783
aI4786
aI2739
aI2741
aI2744
aI2745
aI2748
aI2749
aI2751
aI2754
aI2755
aI2757
aI4806
aI2759
aI2760
aI2761
aI2762
aI1143
aI2764
aI2765
aI2766
aI2767
aI2768
aI2769
aI2770
aI2771
aI2772
aI2773
aI726
aI728
aI2780
aI3194
aI6878
aI735
aI736
aI738
aI2788
aI2789
aI743
aI2792
aI2793
aI750
aI2800
aI2803
aI756
aI1150
aI758
aI760
aI1151
aI766
aI4863
aI768
aI769
aI771
aI5249
aI6925
aI782
aI783
aI785
aI787
aI793
aI794
aI795
aI797
aI799
aI804
aI2855
aI4905
aI5255
aI820
aI821
aI827
aI828
aI829
aI830
aI831
aI832
aI833
aI835
aI2887
aI6284
aI2890
aI4578
aI3213
aI4944
aI1167
aI7007
aI146
aI881
aI2930
aI6974
aI886
aI7031
aI2940
aI2941
aI2962
aI2946
aI2947
aI7054
aI904
aI905
aI7050
aI909
aI910
aI911
aI5008
aI913
aI5010
aI5011
aI2964
aI917
aI2966
aI5017
aI5018
aI5019
aI5020
aI5021
aI5022
aI5023
aI5024
aI2977
aI5028
aI965
aI7120
aI7129
aI7130
aI4943
aI7132
aI7133
aI7134
aI5087
aI992
aI7137
aI7139
aI7140
aI7141
aI7143
aI7144
aI7145
aI7146
aI7148
aI3053
aI3060
aI3062
aI1015
aI7163
aI7164
aI7165
aI7166
aI7167
aI7168
aI7169
aI7170
aI7171
aI3076
aI3077
aI7174
aI5127
aI7176
aI3081
aI3083
aI3085
aI3087
aI3089
aI3093
aI1051
aI1052
aI1056
aI1057
aI1058
aI1059
aI1060
aI1061
aI1062
aI1063
aI1065
aI3124
aI3125
aI3126
aI3127
aI3129
aI5301
aI3136
aI3139
aI5302
aI5303
aI3151
aI1105
aI3157
aI1110
aI1111
aI1112
aI1113
aI1114
aI1115
aI1116
aI1117
aI1118
aI1119
aI1120
aI1121
aI1122
aI1123
aI5220
aI1125
aI1126
aI1127
aI1129
aI1130
aI1131
aI1132
aI1133
aI1134
aI1135
aI1136
aI1137
aI1138
aI1139
aI1140
aI1141
aI3190
aI3191
aI1144
aI1145
aI1146
aI1148
aI1149
aI5246
aI5247
aI1152
aI1153
aI1154
aI1155
aI5252
aI5253
aI1158
aI1159
aI1160
aI1161
aI1607
aI1163
aI3212
aI1165
aI1166
aI3215
aI1168
aI1169
aI1170
aI1171
aI1172
aI1174
aI1175
aI1176
aI1177
aI1178
aI1179
aI1180
aI1181
aI1182
aI5282
aI5284
aI1189
aI5287
aI1192
aI5290
aI5291
aI3245
aI3246
aI1565
aI3248
aI5297
aI1202
aI5300
aI3253
aI3254
aI1207
aI5304
aI1209
aI3261
aI3616
aI3266
aI3267
aI3270
aI3617
aI5941
aI5331
aI1240
aI1241
aI1242
aI1244
aI3298
aI5369
aI5384
aI3337
aI3338
aI3341
aI1304
aI1306
aI3378
aI3379
aI3382
aI3385
aI3387
aI5436
aI3390
aI5439
aI3393
aI3396
aI3397
aI3398
aI6992
aI5005
aI1361
aI3411
aI3413
aI912
aI5474
aI5482
aI914
aI2621
aI1032
aI3441
aI915
aI574
aI5012
aI576
aI5507
aI5510
aI5512
aI2626
aI2627
aI1428
aI2628
aI5532
aI5535
aI5537
aI2971
aI5544
aI2972
aI5703
aI5548
aI2973
aI3508
aI2975
aI5564
aI5706
aI5025
aI5578
aI5591
aI3546
aI2639
aI1500
aI3255
aI1503
aI1505
aI1506
aI1507
aI1510
aI1516
aI5613
aI1519
aI1522
aI5715
aI1142
aI5718
aI5641
aI3597
aI3599
aI3601
aI3602
aI5721
aI120
aI3611
aI3612
aI3674
aI1568
aI1569
aI1571
aI3627
aI3628
aI3630
aI3634
aI3638
aI3642
aI5691
aI5692
aI3646
aI5697
aI3650
aI5699
aI5700
aI5701
aI3654
aI609
aI5704
aI3658
aI5707
aI5709
aI3662
aI5712
aI1617
aI3666
aI1635
aI1620
aI3670
aI1623
aI1625
aI1626
aI1628
aI3678
aI5727
aI1632
aI3682
aI5731
aI5733
aI5734
aI5735
aI3695
aI5749
aI5751
aI3707
aI4032
aI3719
aI1897
aI3734
aI1692
aI283
aI3749
aI1703
aI2332
aI5807
aI1871
aI3764
aI5815
aI5816
aI5822
aI1498
aI755
aI3785
aI3795
aI5845
aI3805
aI5862
aI5863
aI5864
aI5868
aI5869
aI5870
aI5871
aI5874
aI5875
aI5876
aI5880
aI5881
aI5882
aI5883
aI3837
aI5886
aI3839
aI5893
aI5895
aI5902
aI5904
aI5912
aI1819
aI5918
aI3871
aI3875
aI5927
aI5928
aI5929
aI5930
aI5932
aI5934
aI5936
aI5937
aI5938
aI5939
aI1845
aI7135
aI5955
aI5956
aI5957
aI5958
aI5959
aI5960
aI5961
aI5962
aI5963
aI5964
aI5965
aI5966
aI5967
aI5968
aI5969
aI5970
aI5971
aI5972
aI5973
aI5974
aI5975
aI5976
aI5977
aI5979
aI5980
aI5982
aI5990
aI3943
aI3945
aI1923
aI3974
aI3976
aI1949
aI1156
aI5248
aI6059
aI6067
aI6069
aI6075
aI6077
aI1984
aI6087
aI6089
aI6106
aI4059
aI3613
aI6109
aI5250
aI5457
aI2024
aI6127
atRp716
sS'/home/april/anaconda/lib/python2.7/site-packages/numpy/ma/extras.py'
p717
g3
((lp718
I10
aI11
aI12
aI13
aI14
aI1040
aI17
aI18
aI19
aI20
aI21
aI22
aI23
aI24
aI25
aI26
aI27
aI28
aI29
aI30
aI31
aI32
aI33
aI36
aI37
aI39
aI1064
aI45
aI46
aI47
aI48
aI49
aI53
aI59
aI582
aI1096
aI1612
aI16
aI1122
aI113
aI1665
aI1158
aI1172
aI1561
aI672
aI164
aI1209
aI1725
aI1742
aI740
aI222
aI1252
aI237
aI239
aI240
aI40
aI754
aI243
aI1786
aI768
aI261
aI262
aI263
aI264
aI265
aI267
aI271
aI295
aI296
aI297
aI903
aI1836
aI1325
aI302
aI303
aI304
aI305
aI307
aI309
aI1848
aI315
aI1845
aI325
aI1881
aI858
aI1415
aI1425
aI1427
aI1428
aI1430
aI410
aI413
aI241
aI436
aI949
aI439
aI1481
aI1496
aI1497
aI1498
aI1500
aI1506
aI1011
atRp719
sS'/home/april/anaconda/lib/python2.7/site-packages/numpy/_import_tools.py'
p720
g3
((lp721
I128
aI1
aI2
aI283
aI4
aI261
aI6
aI7
aI264
aI267
aI239
aI334
aI335
aI304
aI49
aI102
aI271
aI345
aI251
aI29
atRp722
sS'/home/april/anaconda/lib/python2.7/site-packages/scipy/misc/doccer.py'
p723
g3
((lp724
I128
aI2
aI4
aI6
aI8
aI9
aI12
aI143
aI144
aI145
aI146
aI147
aI148
aI150
aI153
aI44
aI46
aI48
aI50
aI179
aI52
aI55
aI56
aI58
aI187
aI60
aI61
aI62
aI63
aI64
aI65
aI66
aI67
aI68
aI71
aI59
aI116
aI117
aI118
aI119
aI120
aI122
aI123
aI124
aI125
atRp725
sS'/home/april/anaconda/lib/python2.7/site-packages/numpy/polynomial/chebyshev.py'
p726
g3
((lp727
I1412
aI699
aI136
aI1239
aI1294
aI1978
aI659
aI1812
aI1941
aI1467
aI325
aI161
aI1595
aI556
aI814
aI94
aI442
aI287
aI188
aI445
aI448
aI451
aI965
aI454
aI1096
aI1353
aI1868
aI866
aI87
aI88
aI90
aI91
aI92
aI93
aI606
aI2015
aI96
aI97
aI98
aI99
aI100
aI101
aI102
aI1767
aI104
aI490
aI748
aI111
aI375
aI1913
aI1530
aI1183
aI255
atRp728
sS'/home/april/anaconda/lib/python2.7/site-packages/scipy/linalg/decomp_svd.py'
p729
g3
((lp730
I1
aI2
aI4
aI5
aI6
aI9
aI10
aI12
aI15
aI16
aI113
aI181
aI149
atRp731
sS'/home/april/anaconda/lib/python2.7/collections.py'
p732
g3
((lp733
I308
aI309
aI310
aI311
aI322
aI323
aI326
aI329
aI332
aI333
aI334
aI337
aI339
aI342
aI343
aI344
aI345
aI346
aI347
aI348
aI349
aI350
aI352
aI357
aI358
aI359
aI360
aI363
aI369
aI370
aI374
atRp734
sS'/home/april/anaconda/lib/python2.7/site-packages/scipy/sparse/coo.py'
p735
g3
((lp736
I1
aI2
aI387
aI4
aI6
aI8
aI10
aI12
aI14
aI15
aI16
aI17
aI20
aI286
aI195
aI324
aI330
aI204
aI206
aI248
aI350
aI360
aI233
aI237
aI114
aI115
aI376
aI383
atRp737
sS'/home/april/anaconda/lib/python2.7/site-packages/scipy/sparse/sparsetools/csr.py'
p738
g3
((lp739
I384
aI644
aI22
aI263
aI9
aI10
aI11
aI12
aI13
aI14
aI15
aI16
aI916
aI21
aI534
aI24
aI25
aI26
aI27
aI30
aI159
aI32
aI48
aI35
aI679
aI604
aI816
aI434
aI51
aI57
aI31
aI62
aI63
aI64
aI193
aI71
aI584
aI75
aI716
aI82
aI86
aI313
aI228
aI90
aI348
aI866
aI484
aI624
aI20
aI125
aI766
atRp740
sS'/home/april/anaconda/lib/python2.7/site-packages/scipy/stats/distributions.py'
p741
g3
((lp742
I4099
aI4100
aI342
aI4103
aI8
aI9
aI4106
aI11
aI349
aI4109
aI14
aI15
aI6160
aI17
aI18
aI19
aI21
aI22
aI23
aI24
aI4121
aI7434
aI28
aI2394
aI5
aI32
aI33
aI34
aI35
aI3479
aI2085
aI2087
aI40
aI41
aI2090
aI43
aI44
aI45
aI46
aI47
aI4144
aI49
aI50
aI4147
aI52
aI53
aI2102
aI55
aI56
aI57
aI58
aI4155
aI62
aI63
aI2112
aI2113
aI66
aI3083
aI2116
aI69
aI7521
aI72
aI12
aI4172
aI4173
aI2128
aI82
aI83
aI4180
aI3086
aI4299
aI2136
aI356
aI90
aI1039
aI4188
aI2186
aI94
aI2405
aI2144
aI16
aI98
aI2148
aI102
aI3772
aI106
aI359
aI4205
aI4206
aI4209
aI114
aI4115
aI2164
aI2165
aI118
aI4215
aI2168
aI4218
aI2171
aI4256
aI4221
aI345
aI4223
aI2177
aI130
aI4227
aI2180
aI134
aI2183
aI138
aI2071
aI2189
aI142
aI365
aI2192
aI1048
aI146
aI2195
aI1390
aI4246
aI4247
aI371
aI4250
aI4253
aI6413
aI7516
aI162
aI1051
aI2265
aI166
aI4263
aI1203
aI4124
aI170
aI7862
aI4268
aI174
aI175
aI5593
aI2095
aI178
aI6515
aI180
aI2229
aI713
aI2232
aI3103
aI5143
aI7541
aI5975
aI4289
aI2247
aI2248
aI2251
aI204
aI2082
aI2254
aI6351
aI6352
aI6353
aI210
aI4307
aI2260
aI6357
aI6358
aI6359
aI3485
aI6361
aI6362
aI6363
aI6364
aI6365
aI6366
aI6367
aI6368
aI6369
aI6370
aI3943
aI6486
aI553
aI2280
aI2281
aI4330
aI2284
aI4333
aI2287
aI4337
aI2290
aI243
aI4340
aI2293
aI4342
aI247
aI248
aI4345
aI2298
aI251
aI252
aI253
aI4441
aI4782
aI6400
aI6401
aI258
aI259
aI260
aI261
aI6406
aI6407
aI2312
aI2313
aI266
aI267
aI2316
aI4365
aI4366
aI2319
aI272
aI273
aI2322
aI275
aI276
aI6412
aI4374
aI5849
aI280
aI281
aI6426
aI4379
aI6428
aI285
aI4382
aI287
aI288
aI48
aI290
aI291
aI6436
aI6437
aI294
aI295
aI296
aI2345
aI298
aI299
aI2348
aI7218
aI302
aI4399
aI2124
aI2354
aI6451
aI4405
aI6454
aI6455
aI312
aI6457
aI4411
aI4413
aI6462
aI6463
aI4416
aI6466
aI1134
aI6468
aI54
aI6471
aI2377
aI6474
aI1079
aI6480
aI4152
aI338
aI6483
aI4437
aI4438
aI343
aI344
aI2393
aI6490
aI347
aI4444
aI2397
aI6494
aI351
aI4448
aI6497
aI4450
aI5179
aI6500
aI357
aI358
aI7569
aI2408
aI6506
aI2411
aI6509
aI3149
aI6512
aI2419
aI5182
aI5524
aI4474
aI4475
aI4002
aI2794
aI4479
aI2433
aI4483
aI3478
aI65
aI4489
aI6539
aI4492
aI2400
aI5840
aI403
aI1309
aI1080
aI348
aI68
aI4508
aI4509
aI150
aI4310
aI3426
aI426
aI71
aI428
aI6575
aI433
aI436
aI414
aI4534
aI439
aI4536
aI355
aI442
aI4539
aI6425
aI445
aI5334
aI265
aI451
aI1782
aI456
aI2076
aI4554
aI4555
aI7586
aI4558
aI1101
aI2334
aI467
aI6612
aI4565
aI470
aI4568
aI473
aI4571
aI476
aI4573
aI2526
aI479
aI4576
aI4176
aI482
aI4859
aI485
aI488
aI491
aI289
aI2542
aI2543
aI4592
aI2676
aI4595
aI2548
aI7859
aI4598
aI2551
aI4601
aI2554
aI6651
aI4604
aI85
aI2559
aI4613
aI4616
aI3113
aI2576
aI5405
aI3161
aI4527
aI4637
aI4638
aI2591
aI2592
aI2814
aI546
aI2595
aI549
aI2598
aI249
aI3164
aI554
aI4652
aI36
aI4654
aI4657
aI5406
aI4661
aI2104
aI1519
aI2616
aI569
aI2619
aI2622
aI6414
aI3510
aI583
aI584
aI6729
aI587
aI4684
aI1122
aI4982
aI591
aI592
aI2641
aI4690
aI1123
aI596
aI4693
aI599
aI2648
aI601
aI3983
aI2651
aI604
aI605
aI1125
aI4704
aI609
aI610
aI1095
aI4709
aI614
aI615
aI616
aI617
aI619
aI620
aI622
aI623
aI624
aI2673
aI6771
aI4724
aI4725
aI630
aI4728
aI3482
aI5567
aI4734
aI84
aI4737
aI2690
aI7275
aI4740
aI3862
aI2694
aI2691
aI2697
aI7182
aI6169
aI4748
aI4750
aI2703
aI2705
aI2709
aI4591
aI6813
aI5167
aI2722
aI2723
aI2726
aI4775
aI4776
aI2729
aI4779
aI2732
aI686
aI2735
aI4785
aI2738
aI4788
aI2741
aI7625
aI2744
aI4793
aI2746
aI4795
aI2749
aI4798
aI459
aI6857
aI2132
aI4813
aI4814
aI7629
aI4817
aI2770
aI2771
aI4820
aI462
aI2774
aI4823
aI2777
aI4826
aI4119
aI2780
aI122
aI2783
aI738
aI6503
aI2790
aI3537
aI4842
aI4843
aI4562
aI4846
aI4849
aI4852
aI126
aI4185
aI2807
aI2808
aI5890
aI2811
aI764
aI4862
aI4731
aI2820
aI2823
aI3487
aI2826
aI2829
aI4878
aI4879
aI2832
aI4882
aI788
aI2838
aI4887
aI2841
aI4890
aI4893
aI4896
aI2523
aI4900
aI5254
aI4903
aI2857
aI2858
aI5702
aI2861
aI2864
aI6962
aI2867
aI2869
aI300
aI2872
aI4923
aI4924
aI1162
aI830
aI4927
aI4138
aI2887
aI2888
aI4939
aI2892
aI4942
aI2896
aI4945
aI2900
aI1083
aI4952
aI3215
aI2908
aI5946
aI4958
aI2912
aI4961
aI2915
aI7012
aI2918
aI31
aI4978
aI4979
aI2932
aI7030
aI2936
aI4643
aI3903
aI4988
aI2941
aI6440
aI2945
aI4994
aI2198
aI7046
aI5000
aI7049
aI2954
aI5003
aI2957
aI5006
aI2961
aI5011
aI5014
aI7321
aI495
aI154
aI3909
aI6373
aI2980
aI2981
aI5031
aI2984
aI1054
aI2987
aI5038
aI7260
aI2993
aI2996
aI158
aI2999
aI3002
aI1183
aI3005
aI5055
aI3008
aI42
aI3010
aI3013
aI5623
aI3029
aI3030
aI3034
aI3038
aI5088
aI3042
aI5091
aI3044
aI3511
aI3047
aI508
aI5148
aI5106
aI5107
aI5110
aI4265
aI5113
aI7679
aI3068
aI3072
aI3075
aI3078
aI4453
aI3081
aI7178
aI7179
aI1037
aI1038
aI3245
aI4112
aI1041
aI7186
aI1043
aI1044
aI1045
aI1047
aI7192
aI5145
aI1050
aI7195
aI1052
aI1053
aI3102
aI1055
aI1056
aI1057
aI1058
aI7204
aI2081
aI3110
aI1063
aI1064
aI1065
aI7210
aI1068
aI1069
aI1070
aI1071
aI1072
aI1073
aI5170
aI1075
aI1076
aI5173
aI7223
aI5176
aI7
aI7226
aI3131
aI1084
aI3134
aI1087
aI1088
aI5185
aI1090
aI1092
aI5189
aI5191
aI5194
aI7244
aI7245
aI3150
aI2573
aI7248
aI3153
aI7251
aI3156
aI7254
aI3159
aI7257
aI1114
aI1116
aI1117
aI1118
aI7263
aI1120
aI7266
aI7751
aI1124
aI7269
aI1126
aI5493
aI1128
aI1129
aI5226
aI1131
aI3181
aI3182
aI3185
aI5651
aI3188
aI3195
aI7292
aI7293
aI3198
aI7296
aI3201
aI7299
aI3204
aI7302
aI1159
aI7306
aI5261
aI7310
aI1167
aI635
aI1170
aI7315
aI448
aI5269
aI1174
aI6418
aI3226
aI1062
aI1221
aI5280
aI7329
aI1187
aI7332
aI6349
aI1191
aI3241
aI3242
aI4295
aI5292
aI1197
aI3248
aI3251
aI7349
aI7350
aI7353
aI1212
aI1215
aI5313
aI7362
aI245
aI3268
aI3958
aI7366
aI1225
aI7370
aI3275
aI1228
aI7375
aI6691
aI4302
aI7382
aI5337
aI5340
aI3295
aI3296
aI6179
aI5346
aI3299
aI4646
aI3302
aI2257
aI3305
aI277
aI5355
aI3308
aI110
aI3311
aI5360
aI3313
aI3314
aI6355
aI3317
aI350
aI4649
aI7612
aI5839
aI5333
aI588
aI5377
aI5378
aI7723
aI5381
aI4141
aI5384
aI3337
aI3338
aI5805
aI3341
aI7438
aI3344
aI3347
aI7445
aI7385
aI7272
aI3355
aI7452
aI3357
aI3358
aI2949
aI3361
aI5410
aI219
aI5413
aI4681
aI5416
aI5418
aI5421
aI3376
aI3377
aI5227
aI7476
aI3381
aI4377
aI4305
aI3384
aI3814
aI7482
aI5343
aI5436
aI5437
aI7783
aI3392
aI1349
aI7494
aI3401
aI7498
aI5451
aI3404
aI5453
aI5456
aI6371
aI3796
aI4137
aI7515
aI3420
aI3421
aI5349
aI5473
aI5474
aI7524
aI5477
aI3430
aI7527
aI5480
aI3433
aI5483
aI3436
aI5486
aI3440
aI5491
aI3445
aI4329
aI7544
aI1940
aI3451
aI3454
aI1206
aI5696
aI179
aI1820
aI5511
aI5512
aI7561
aI7562
aI7565
aI5518
aI3116
aI5521
aI5699
aI7572
aI1430
aI5527
aI7576
aI5530
aI7580
aI5533
aI5535
aI5708
aI7435
aI3490
aI5539
aI5299
aI7592
aI7595
aI4680
aI5554
aI5555
aI5558
aI3657
aI5561
aI2601
aI7613
aI3519
aI1474
aI5571
aI246
aI3529
aI2295
aI3533
aI7633
aI5586
aI5587
aI7758
aI5590
aI7639
aI1209
aI4687
aI3663
aI5596
aI1060
aI7646
aI4005
aI5601
aI7650
aI5604
aI7653
aI2096
aI3560
aI3119
aI3564
aI2642
aI3567
aI5032
aI5619
aI5620
aI254
aI7670
aI7671
aI5626
aI7675
aI5629
aI5631
aI51
aI5634
aI5035
aI7686
aI257
aI7457
aI5166
aI6402
aI256
aI4696
aI7698
aI7699
aI5652
aI2990
aI7702
aI5655
aI3609
aI5658
aI1564
aI5661
aI5664
aI4212
aI5667
aI2120
aI262
aI5671
aI5673
aI7722
aI263
aI5676
aI7728
aI6408
aI7732
aI6409
aI7736
aI3641
aI3642
aI5691
aI5692
aI3645
aI7742
aI7009
aI3648
aI2099
aI3651
aI5357
aI3654
aI597
aI5705
aI3660
aI4706
aI2645
aI5389
aI7760
aI3666
aI7765
aI5720
aI3675
aI5726
aI3123
aI4487
aI7782
aI4369
aI7786
aI5969
aI274
aI5742
aI5743
aI7793
aI7796
aI5757
aI6421
aI5760
aI5763
aI6422
aI5766
aI1673
aI279
aI5772
aI5058
aI7789
aI5779
aI2329
aI7832
aI3738
aI7835
aI3741
aI5061
aI7841
aI2331
aI5801
aI7850
aI7831
aI3254
aI3759
aI7856
aI3761
aI7858
aI5811
aI6430
aI5814
aI1719
aI628
aI1722
aI5820
aI5823
aI5827
aI3781
aI5830
aI6433
aI3784
aI2338
aI7887
aI7888
aI1746
aI5843
aI7892
aI5846
aI3799
aI292
aI7898
aI4150
aI5852
aI5855
aI293
aI7904
aI5857
aI2262
aI5860
aI7910
aI3815
aI3818
aI3821
aI1775
aI59
aI3826
aI7356
aI5878
aI5879
aI5496
aI3833
aI5882
aI3836
aI5885
aI264
aI3839
aI5888
aI3842
aI4395
aI5893
aI4396
aI4288
aI2174
aI3857
aI3858
aI7811
aI5909
aI5910
aI4057
aI5913
aI303
aI5916
aI3869
aI5919
aI5922
aI3875
aI5924
aI7814
aI3878
aI5927
aI3880
aI3883
aI4402
aI1035
aI5942
aI5943
aI278
aI3898
aI3899
aI5949
aI6453
aI3906
aI1267
aI3911
aI5386
aI2700
aI3914
aI7200
aI7359
aI4408
aI2140
aI313
aI176
aI5977
aI5982
aI3935
aI3936
aI5723
aI2363
aI3940
aI1049
aI4753
aI3388
aI3946
aI3949
aI1903
aI3952
aI2072
aI2904
aI3956
aI268
aI3961
aI5440
aI6415
aI5783
aI3982
aI1935
aI6033
aI4997
aI3987
aI269
aI3990
aI6040
aI3993
aI5308
aI3996
aI6045
aI4000
aI6050
aI5316
aI1957
aI6054
aI1960
aI6059
aI6064
aI270
aI4020
aI4021
aI4024
aI4027
aI1980
aI4030
aI4033
aI4036
aI3062
aI4038
aI4041
aI3063
aI271
aI6098
aI7161
aI4056
aI2009
aI2010
aI2931
aI4060
aI4063
aI627
aI4066
aI5116
aI4077
aI177
aI4079
aI4082
aI339
aI1200
aI5802
aI341
atRp743
sS'/home/april/anaconda/lib/python2.7/site-packages/scipy/optimize/_minimize.py'
p744
g3
((lp745
I32
aI33
aI34
aI37
aI38
aI39
aI8
aI9
aI12
aI397
aI398
aI15
aI17
aI19
aI22
aI26
aI27
aI28
aI31
atRp746
sS'/home/april/anaconda/lib/python2.7/site-packages/PIL/ImagePalette.py'
p747
g3
((lp748
I133
aI103
aI44
aI75
aI140
aI143
aI112
aI37
aI19
aI20
aI118
aI121
aI25
aI26
aI28
aI93
aI126
aI52
atRp749
sS'/home/april/anaconda/lib/python2.7/tokenize.py'
p750
g3
((lp751
I23
aI25
aI26
aI29
aI30
aI32
aI33
aI34
aI35
aI36
aI38
aI39
aI40
aI41
aI42
aI44
aI45
aI46
aI48
aI49
aI50
aI51
aI53
aI54
aI55
aI56
aI57
aI58
aI59
aI60
aI61
aI62
aI63
aI66
aI68
aI70
aI72
aI73
aI75
aI76
aI81
aI82
aI83
aI84
aI86
aI87
aI88
aI90
aI91
aI94
aI95
aI96
aI97
aI98
aI99
aI101
aI102
aI103
aI104
aI105
aI106
aI107
aI108
aI109
aI110
aI111
aI112
aI113
aI114
aI115
aI116
aI117
aI118
aI119
aI120
aI122
aI123
aI130
aI131
aI132
aI133
aI140
aI141
aI143
aI145
aI147
aI149
aI155
aI174
aI178
aI180
aI185
aI192
aI206
aI243
aI264
aI421
atRp752
sS'/home/april/anaconda/lib/python2.7/site-packages/scipy/linalg/decomp.py'
p753
g3
((lp754
I769
aI772
aI15
aI17
aI18
aI20
aI21
aI409
aI24
aI25
aI410
aI27
aI26
aI30
aI33
aI47
aI691
aI692
aI570
aI196
aI197
aI198
aI83
aI84
aI615
aI616
aI617
atRp755
sS'/home/april/anaconda/lib/python2.7/site-packages/numpy/lib/polynomial.py'
p756
g3
((lp757
I149
aI1027
aI1028
aI1029
aI6
aI7
aI1032
aI9
aI394
aI1163
aI13
aI781
aI1038
aI1167
aI16
aI1041
aI26
aI3
aI1044
aI17
aI1046
aI1047
aI1048
aI1049
aI1050
aI27
aI1052
aI29
aI5
aI1219
aI1058
aI1187
aI1189
aI1063
aI1192
aI1180
aI1066
aI1195
aI1198
aI1178
aI901
aI1211
aI10
aI19
aI928
aI835
aI326
aI674
aI1231
aI11
aI900
aI1234
aI14
aI1030
aI15
aI605
aI734
aI1247
aI1040
aI1124
aI1127
aI233
aI1130
aI1133
aI1262
aI1155
aI1043
aI1140
aI1171
aI1031
aI1147
aI1151
atRp758
sS'/home/april/anaconda/lib/python2.7/urllib.py'
p759
g3
((lp760
I1034
aI1035
aI1040
aI1043
aI23
aI25
aI26
aI27
aI28
aI29
aI30
aI31
aI33
aI35
aI36
aI37
aI38
aI39
aI40
aI41
aI43
aI178
aI48
aI50
aI564
aI1077
aI1078
aI1593
aI58
aI95
aI1597
aI1291
aI1094
aI71
aI72
aI1613
aI1106
aI1107
aI90
aI1119
aI1120
aI610
aI611
aI1095
aI613
aI102
aI103
aI1131
aI1132
aI110
aI623
aI115
aI116
aI122
aI124
aI126
aI639
aI129
aI1154
aI619
aI1165
aI1166
aI107
aI663
aI152
aI1177
aI155
aI158
aI1183
aI1184
aI678
aI172
aI1199
aI1200
aI1201
aI1202
aI1204
aI1055
aI700
aI1232
aI722
aI1237
aI214
aI1240
aI1241
aI1242
aI219
aI1245
aI225
aI739
aI1063
aI1064
aI756
aI769
aI1284
aI1153
aI111
aI782
aI45
aI793
aI290
aI1243
aI809
aI810
aI817
aI818
aI825
aI826
aI53
aI834
aI835
aI1355
aI851
aI852
aI855
aI856
aI1371
aI1594
aI867
aI363
aI876
aI1392
aI378
aI383
aI384
aI919
aI928
aI667
aI933
aI939
aI946
aI947
aI949
aI671
aI1471
aI963
aI967
aI456
aI975
aI976
aI465
aI978
aI983
aI990
aI991
aI993
aI997
aI1000
aI1001
aI1003
aI1009
aI1012
aI502
aI1015
atRp761
sS'/home/april/anaconda/lib/python2.7/site-packages/scipy/stats/_support.py'
p762
g3
((lp763
I1
aI3
aI228
aI133
aI97
aI8
aI9
aI42
aI7
aI12
aI111
aI240
aI81
aI4
aI218
atRp764
sS'/home/april/anaconda/lib/python2.7/site-packages/scipy/sparse/sparsetools/dia.py'
p765
g3
((lp766
I9
aI10
aI11
aI12
aI13
aI14
aI15
aI16
aI20
aI21
aI22
aI24
aI25
aI26
aI27
aI30
aI31
aI32
aI35
aI48
aI51
aI57
aI62
aI63
aI64
aI71
atRp767
sS'/home/april/anaconda/lib/python2.7/site-packages/scipy/optimize/_trustregion.py'
p768
g3
((lp769
I1
aI2
aI4
aI6
aI7
aI8
aI11
aI14
aI22
aI24
aI37
aI40
aI47
aI54
aI61
aI67
aI74
aI88
aI93
aI94
aI95
aI96
aI97
atRp770
sS'/home/april/anaconda/lib/python2.7/os.py'
p771
g3
((lp772
I36
aI37
aI38
aI39
atRp773
sS'/home/april/anaconda/lib/python2.7/site-packages/numpy/lib/_datasource.py'
p774
g3
((lp775
I518
aI520
aI525
aI528
aI537
aI541
aI33
aI35
aI37
aI38
aI40
aI47
aI563
aI69
aI70
aI71
aI72
aI73
aI74
aI75
aI76
aI77
aI78
aI81
aI82
aI83
aI596
aI86
aI88
aI104
aI105
aI106
aI107
aI108
aI621
aI110
aI112
aI144
aI145
aI148
aI195
aI197
aI199
aI200
aI201
aI207
aI209
aI212
aI215
aI216
aI218
aI228
aI236
aI239
aI241
aI243
aI244
aI245
aI246
aI247
aI248
aI250
aI254
aI262
aI263
aI265
aI297
aI311
aI313
aI315
aI322
aI323
aI324
aI326
aI329
aI353
aI364
aI365
aI367
aI368
aI369
aI370
aI372
aI376
aI377
aI378
aI379
aI381
aI382
aI383
aI384
aI386
aI417
aI418
aI421
aI422
aI439
aI468
aI472
aI473
aI474
aI475
aI477
aI482
atRp776
sS'/home/april/anaconda/lib/python2.7/site-packages/scipy/stats/mstats_extras.py'
p777
g3
((lp778
I128
aI8
aI108
aI11
aI12
aI397
aI15
aI16
aI17
aI18
aI19
aI20
aI22
aI23
aI25
aI26
aI28
aI30
aI36
aI437
aI9
aI312
aI187
aI188
aI286
aI364
aI240
atRp779
sS'/home/april/anaconda/lib/python2.7/site-packages/scipy/lib/_util.py'
p780
g3
((lp781
I32
aI1
aI2
aI5
aI21
aI23
aI24
aI25
aI26
aI27
aI29
atRp782
sS'/home/april/anaconda/lib/python2.7/site-packages/numpy/oldnumeric/__init__.py'
p783
g3
((lp784
I2
aI4
aI14
aI15
aI16
aI17
aI18
aI20
aI21
aI22
aI23
aI24
aI26
aI27
aI28
aI30
aI31
aI32
aI33
aI34
aI35
aI37
aI38
aI39
aI40
aI41
aI43
aI44
aI45
atRp785
sS'/home/april/anaconda/lib/python2.7/site-packages/scipy/linalg/linalg_version.py'
p786
g3
((lp787
I1
aI3
aI4
aI5
aI7
atRp788
s.